
AVRASM ver. 2.1.30  Z:\M164A metrics_inserter v1.06\Debug\List\metrics_inserter_uC.asm Wed Jun 28 01:01:16 2023

Z:\M164A metrics_inserter v1.06\Debug\List\metrics_inserter_uC.asm(1090): warning: Register r4 already defined by the .DEF directive
Z:\M164A metrics_inserter v1.06\Debug\List\metrics_inserter_uC.asm(1091): warning: Register r3 already defined by the .DEF directive
Z:\M164A metrics_inserter v1.06\Debug\List\metrics_inserter_uC.asm(1092): warning: Register r6 already defined by the .DEF directive
Z:\M164A metrics_inserter v1.06\Debug\List\metrics_inserter_uC.asm(1093): warning: Register r5 already defined by the .DEF directive
Z:\M164A metrics_inserter v1.06\Debug\List\metrics_inserter_uC.asm(1094): warning: Register r8 already defined by the .DEF directive
Z:\M164A metrics_inserter v1.06\Debug\List\metrics_inserter_uC.asm(1095): warning: Register r7 already defined by the .DEF directive
Z:\M164A metrics_inserter v1.06\Debug\List\metrics_inserter_uC.asm(1096): warning: Register r10 already defined by the .DEF directive
Z:\M164A metrics_inserter v1.06\Debug\List\metrics_inserter_uC.asm(1097): warning: Register r9 already defined by the .DEF directive
Z:\M164A metrics_inserter v1.06\Debug\List\metrics_inserter_uC.asm(1098): warning: Register r12 already defined by the .DEF directive
Z:\M164A metrics_inserter v1.06\Debug\List\metrics_inserter_uC.asm(1099): warning: Register r11 already defined by the .DEF directive
Z:\M164A metrics_inserter v1.06\Debug\List\metrics_inserter_uC.asm(1100): warning: Register r14 already defined by the .DEF directive
Z:\M164A metrics_inserter v1.06\Debug\List\metrics_inserter_uC.asm(1101): warning: Register r13 already defined by the .DEF directive
                 
                 
                 ;CodeVisionAVR C Compiler V3.12 Advanced
                 ;(C) Copyright 1998-2014 Pavel Haiduc, HP InfoTech s.r.l.
                 ;http://www.hpinfotech.com
                 
                 ;Build configuration    : Debug
                 ;Chip type              : ATmega164A
                 ;Program type           : Application
                 ;Clock frequency        : 20.000000 MHz
                 ;Memory model           : Small
                 ;Optimize for           : Speed
                 ;(s)printf features     : long, width
                 ;(s)scanf features      : long, width
                 ;External RAM size      : 0
                 ;Data Stack size        : 256 byte(s)
                 ;Heap size              : 0 byte(s)
                 ;Promote 'char' to 'int': Yes
                 ;'char' is unsigned     : Yes
                 ;8 bit enums            : Yes
                 ;Global 'const' stored in FLASH: No
                 ;Enhanced function parameter passing: Yes
                 ;Enhanced core instructions: On
                 ;Automatic register allocation for global variables: On
                 ;Smart register allocation: On
                 
                 	#define _MODEL_SMALL_
                 
                 	#pragma AVRPART ADMIN PART_NAME ATmega164A
                 	#pragma AVRPART MEMORY PROG_FLASH 16384
                 	#pragma AVRPART MEMORY EEPROM 512
                 	#pragma AVRPART MEMORY INT_SRAM SIZE 1024
                 	#pragma AVRPART MEMORY INT_SRAM START_ADDR 0x100
                 
                 	#define CALL_SUPPORTED 1
                 
                 	.LISTMAC
                 	.EQU EERE=0x0
                 	.EQU EEWE=0x1
                 	.EQU EEMWE=0x2
                 	.EQU UDRE=0x5
                 	.EQU RXC=0x7
                 	.EQU EECR=0x1F
                 	.EQU EEDR=0x20
                 	.EQU EEARL=0x21
                 	.EQU EEARH=0x22
                 	.EQU SPSR=0x2D
                 	.EQU SPDR=0x2E
                 	.EQU SMCR=0x33
                 	.EQU MCUSR=0x34
                 	.EQU MCUCR=0x35
                 	.EQU WDTCSR=0x60
                 	.EQU UCSR0A=0xC0
                 	.EQU UDR0=0xC6
                 	.EQU SPL=0x3D
                 	.EQU SPH=0x3E
                 	.EQU SREG=0x3F
                 	.EQU GPIOR0=0x1E
                 
                 	.DEF R0X0=R0
                 	.DEF R0X1=R1
                 	.DEF R0X2=R2
                 	.DEF R0X3=R3
                 	.DEF R0X4=R4
                 	.DEF R0X5=R5
                 	.DEF R0X6=R6
                 	.DEF R0X7=R7
                 	.DEF R0X8=R8
                 	.DEF R0X9=R9
                 	.DEF R0XA=R10
                 	.DEF R0XB=R11
                 	.DEF R0XC=R12
                 	.DEF R0XD=R13
                 	.DEF R0XE=R14
                 	.DEF R0XF=R15
                 	.DEF R0X10=R16
                 	.DEF R0X11=R17
                 	.DEF R0X12=R18
                 	.DEF R0X13=R19
                 	.DEF R0X14=R20
                 	.DEF R0X15=R21
                 	.DEF R0X16=R22
                 	.DEF R0X17=R23
                 	.DEF R0X18=R24
                 	.DEF R0X19=R25
                 	.DEF R0X1A=R26
                 	.DEF R0X1B=R27
                 	.DEF R0X1C=R28
                 	.DEF R0X1D=R29
                 	.DEF R0X1E=R30
                 	.DEF R0X1F=R31
                 
                 	.EQU __SRAM_START=0x0100
                 	.EQU __SRAM_END=0x04FF
                 	.EQU __DSTACK_SIZE=0x0100
                 	.EQU __HEAP_SIZE=0x0000
                 	.EQU __CLEAR_SRAM_SIZE=__SRAM_END-__SRAM_START+1
                 
                 	.MACRO __CPD1N
                 	CPI  R30,LOW(@0)
                 	LDI  R26,HIGH(@0)
                 	CPC  R31,R26
                 	LDI  R26,BYTE3(@0)
                 	CPC  R22,R26
                 	LDI  R26,BYTE4(@0)
                 	CPC  R23,R26
                 	.ENDM
                 
                 	.MACRO __CPD2N
                 	CPI  R26,LOW(@0)
                 	LDI  R30,HIGH(@0)
                 	CPC  R27,R30
                 	LDI  R30,BYTE3(@0)
                 	CPC  R24,R30
                 	LDI  R30,BYTE4(@0)
                 	CPC  R25,R30
                 	.ENDM
                 
                 	.MACRO __CPWRR
                 	CP   R@0,R@2
                 	CPC  R@1,R@3
                 	.ENDM
                 
                 	.MACRO __CPWRN
                 	CPI  R@0,LOW(@2)
                 	LDI  R30,HIGH(@2)
                 	CPC  R@1,R30
                 	.ENDM
                 
                 	.MACRO __ADDB1MN
                 	SUBI R30,LOW(-@0-(@1))
                 	.ENDM
                 
                 	.MACRO __ADDB2MN
                 	SUBI R26,LOW(-@0-(@1))
                 	.ENDM
                 
                 	.MACRO __ADDW1MN
                 	SUBI R30,LOW(-@0-(@1))
                 	SBCI R31,HIGH(-@0-(@1))
                 	.ENDM
                 
                 	.MACRO __ADDW2MN
                 	SUBI R26,LOW(-@0-(@1))
                 	SBCI R27,HIGH(-@0-(@1))
                 	.ENDM
                 
                 	.MACRO __ADDW1FN
                 	SUBI R30,LOW(-2*@0-(@1))
                 	SBCI R31,HIGH(-2*@0-(@1))
                 	.ENDM
                 
                 	.MACRO __ADDD1FN
                 	SUBI R30,LOW(-2*@0-(@1))
                 	SBCI R31,HIGH(-2*@0-(@1))
                 	SBCI R22,BYTE3(-2*@0-(@1))
                 	.ENDM
                 
                 	.MACRO __ADDD1N
                 	SUBI R30,LOW(-@0)
                 	SBCI R31,HIGH(-@0)
                 	SBCI R22,BYTE3(-@0)
                 	SBCI R23,BYTE4(-@0)
                 	.ENDM
                 
                 	.MACRO __ADDD2N
                 	SUBI R26,LOW(-@0)
                 	SBCI R27,HIGH(-@0)
                 	SBCI R24,BYTE3(-@0)
                 	SBCI R25,BYTE4(-@0)
                 	.ENDM
                 
                 	.MACRO __SUBD1N
                 	SUBI R30,LOW(@0)
                 	SBCI R31,HIGH(@0)
                 	SBCI R22,BYTE3(@0)
                 	SBCI R23,BYTE4(@0)
                 	.ENDM
                 
                 	.MACRO __SUBD2N
                 	SUBI R26,LOW(@0)
                 	SBCI R27,HIGH(@0)
                 	SBCI R24,BYTE3(@0)
                 	SBCI R25,BYTE4(@0)
                 	.ENDM
                 
                 	.MACRO __ANDBMNN
                 	LDS  R30,@0+(@1)
                 	ANDI R30,LOW(@2)
                 	STS  @0+(@1),R30
                 	.ENDM
                 
                 	.MACRO __ANDWMNN
                 	LDS  R30,@0+(@1)
                 	ANDI R30,LOW(@2)
                 	STS  @0+(@1),R30
                 	LDS  R30,@0+(@1)+1
                 	ANDI R30,HIGH(@2)
                 	STS  @0+(@1)+1,R30
                 	.ENDM
                 
                 	.MACRO __ANDD1N
                 	ANDI R30,LOW(@0)
                 	ANDI R31,HIGH(@0)
                 	ANDI R22,BYTE3(@0)
                 	ANDI R23,BYTE4(@0)
                 	.ENDM
                 
                 	.MACRO __ANDD2N
                 	ANDI R26,LOW(@0)
                 	ANDI R27,HIGH(@0)
                 	ANDI R24,BYTE3(@0)
                 	ANDI R25,BYTE4(@0)
                 	.ENDM
                 
                 	.MACRO __ORBMNN
                 	LDS  R30,@0+(@1)
                 	ORI  R30,LOW(@2)
                 	STS  @0+(@1),R30
                 	.ENDM
                 
                 	.MACRO __ORWMNN
                 	LDS  R30,@0+(@1)
                 	ORI  R30,LOW(@2)
                 	STS  @0+(@1),R30
                 	LDS  R30,@0+(@1)+1
                 	ORI  R30,HIGH(@2)
                 	STS  @0+(@1)+1,R30
                 	.ENDM
                 
                 	.MACRO __ORD1N
                 	ORI  R30,LOW(@0)
                 	ORI  R31,HIGH(@0)
                 	ORI  R22,BYTE3(@0)
                 	ORI  R23,BYTE4(@0)
                 	.ENDM
                 
                 	.MACRO __ORD2N
                 	ORI  R26,LOW(@0)
                 	ORI  R27,HIGH(@0)
                 	ORI  R24,BYTE3(@0)
                 	ORI  R25,BYTE4(@0)
                 	.ENDM
                 
                 	.MACRO __DELAY_USB
                 	LDI  R24,LOW(@0)
                 __DELAY_USB_LOOP:
                 	DEC  R24
                 	BRNE __DELAY_USB_LOOP
                 	.ENDM
                 
                 	.MACRO __DELAY_USW
                 	LDI  R24,LOW(@0)
                 	LDI  R25,HIGH(@0)
                 __DELAY_USW_LOOP:
                 	SBIW R24,1
                 	BRNE __DELAY_USW_LOOP
                 	.ENDM
                 
                 	.MACRO __GETD1S
                 	LDD  R30,Y+@0
                 	LDD  R31,Y+@0+1
                 	LDD  R22,Y+@0+2
                 	LDD  R23,Y+@0+3
                 	.ENDM
                 
                 	.MACRO __GETD2S
                 	LDD  R26,Y+@0
                 	LDD  R27,Y+@0+1
                 	LDD  R24,Y+@0+2
                 	LDD  R25,Y+@0+3
                 	.ENDM
                 
                 	.MACRO __PUTD1S
                 	STD  Y+@0,R30
                 	STD  Y+@0+1,R31
                 	STD  Y+@0+2,R22
                 	STD  Y+@0+3,R23
                 	.ENDM
                 
                 	.MACRO __PUTD2S
                 	STD  Y+@0,R26
                 	STD  Y+@0+1,R27
                 	STD  Y+@0+2,R24
                 	STD  Y+@0+3,R25
                 	.ENDM
                 
                 	.MACRO __PUTDZ2
                 	STD  Z+@0,R26
                 	STD  Z+@0+1,R27
                 	STD  Z+@0+2,R24
                 	STD  Z+@0+3,R25
                 	.ENDM
                 
                 	.MACRO __CLRD1S
                 	STD  Y+@0,R30
                 	STD  Y+@0+1,R30
                 	STD  Y+@0+2,R30
                 	STD  Y+@0+3,R30
                 	.ENDM
                 
                 	.MACRO __POINTB1MN
                 	LDI  R30,LOW(@0+(@1))
                 	.ENDM
                 
                 	.MACRO __POINTW1MN
                 	LDI  R30,LOW(@0+(@1))
                 	LDI  R31,HIGH(@0+(@1))
                 	.ENDM
                 
                 	.MACRO __POINTD1M
                 	LDI  R30,LOW(@0)
                 	LDI  R31,HIGH(@0)
                 	LDI  R22,BYTE3(@0)
                 	LDI  R23,BYTE4(@0)
                 	.ENDM
                 
                 	.MACRO __POINTW1FN
                 	LDI  R30,LOW(2*@0+(@1))
                 	LDI  R31,HIGH(2*@0+(@1))
                 	.ENDM
                 
                 	.MACRO __POINTD1FN
                 	LDI  R30,LOW(2*@0+(@1))
                 	LDI  R31,HIGH(2*@0+(@1))
                 	LDI  R22,BYTE3(2*@0+(@1))
                 	LDI  R23,BYTE4(2*@0+(@1))
                 	.ENDM
                 
                 	.MACRO __POINTB2MN
                 	LDI  R26,LOW(@0+(@1))
                 	.ENDM
                 
                 	.MACRO __POINTW2MN
                 	LDI  R26,LOW(@0+(@1))
                 	LDI  R27,HIGH(@0+(@1))
                 	.ENDM
                 
                 	.MACRO __POINTW2FN
                 	LDI  R26,LOW(2*@0+(@1))
                 	LDI  R27,HIGH(2*@0+(@1))
                 	.ENDM
                 
                 	.MACRO __POINTD2FN
                 	LDI  R26,LOW(2*@0+(@1))
                 	LDI  R27,HIGH(2*@0+(@1))
                 	LDI  R24,BYTE3(2*@0+(@1))
                 	LDI  R25,BYTE4(2*@0+(@1))
                 	.ENDM
                 
                 	.MACRO __POINTBRM
                 	LDI  R@0,LOW(@1)
                 	.ENDM
                 
                 	.MACRO __POINTWRM
                 	LDI  R@0,LOW(@2)
                 	LDI  R@1,HIGH(@2)
                 	.ENDM
                 
                 	.MACRO __POINTBRMN
                 	LDI  R@0,LOW(@1+(@2))
                 	.ENDM
                 
                 	.MACRO __POINTWRMN
                 	LDI  R@0,LOW(@2+(@3))
                 	LDI  R@1,HIGH(@2+(@3))
                 	.ENDM
                 
                 	.MACRO __POINTWRFN
                 	LDI  R@0,LOW(@2*2+(@3))
                 	LDI  R@1,HIGH(@2*2+(@3))
                 	.ENDM
                 
                 	.MACRO __GETD1N
                 	LDI  R30,LOW(@0)
                 	LDI  R31,HIGH(@0)
                 	LDI  R22,BYTE3(@0)
                 	LDI  R23,BYTE4(@0)
                 	.ENDM
                 
                 	.MACRO __GETD2N
                 	LDI  R26,LOW(@0)
                 	LDI  R27,HIGH(@0)
                 	LDI  R24,BYTE3(@0)
                 	LDI  R25,BYTE4(@0)
                 	.ENDM
                 
                 	.MACRO __GETB1MN
                 	LDS  R30,@0+(@1)
                 	.ENDM
                 
                 	.MACRO __GETB1HMN
                 	LDS  R31,@0+(@1)
                 	.ENDM
                 
                 	.MACRO __GETW1MN
                 	LDS  R30,@0+(@1)
                 	LDS  R31,@0+(@1)+1
                 	.ENDM
                 
                 	.MACRO __GETD1MN
                 	LDS  R30,@0+(@1)
                 	LDS  R31,@0+(@1)+1
                 	LDS  R22,@0+(@1)+2
                 	LDS  R23,@0+(@1)+3
                 	.ENDM
                 
                 	.MACRO __GETBRMN
                 	LDS  R@0,@1+(@2)
                 	.ENDM
                 
                 	.MACRO __GETWRMN
                 	LDS  R@0,@2+(@3)
                 	LDS  R@1,@2+(@3)+1
                 	.ENDM
                 
                 	.MACRO __GETWRZ
                 	LDD  R@0,Z+@2
                 	LDD  R@1,Z+@2+1
                 	.ENDM
                 
                 	.MACRO __GETD2Z
                 	LDD  R26,Z+@0
                 	LDD  R27,Z+@0+1
                 	LDD  R24,Z+@0+2
                 	LDD  R25,Z+@0+3
                 	.ENDM
                 
                 	.MACRO __GETB2MN
                 	LDS  R26,@0+(@1)
                 	.ENDM
                 
                 	.MACRO __GETW2MN
                 	LDS  R26,@0+(@1)
                 	LDS  R27,@0+(@1)+1
                 	.ENDM
                 
                 	.MACRO __GETD2MN
                 	LDS  R26,@0+(@1)
                 	LDS  R27,@0+(@1)+1
                 	LDS  R24,@0+(@1)+2
                 	LDS  R25,@0+(@1)+3
                 	.ENDM
                 
                 	.MACRO __PUTB1MN
                 	STS  @0+(@1),R30
                 	.ENDM
                 
                 	.MACRO __PUTW1MN
                 	STS  @0+(@1),R30
                 	STS  @0+(@1)+1,R31
                 	.ENDM
                 
                 	.MACRO __PUTD1MN
                 	STS  @0+(@1),R30
                 	STS  @0+(@1)+1,R31
                 	STS  @0+(@1)+2,R22
                 	STS  @0+(@1)+3,R23
                 	.ENDM
                 
                 	.MACRO __PUTB1EN
                 	LDI  R26,LOW(@0+(@1))
                 	LDI  R27,HIGH(@0+(@1))
                 	CALL __EEPROMWRB
                 	.ENDM
                 
                 	.MACRO __PUTW1EN
                 	LDI  R26,LOW(@0+(@1))
                 	LDI  R27,HIGH(@0+(@1))
                 	CALL __EEPROMWRW
                 	.ENDM
                 
                 	.MACRO __PUTD1EN
                 	LDI  R26,LOW(@0+(@1))
                 	LDI  R27,HIGH(@0+(@1))
                 	CALL __EEPROMWRD
                 	.ENDM
                 
                 	.MACRO __PUTBR0MN
                 	STS  @0+(@1),R0
                 	.ENDM
                 
                 	.MACRO __PUTBMRN
                 	STS  @0+(@1),R@2
                 	.ENDM
                 
                 	.MACRO __PUTWMRN
                 	STS  @0+(@1),R@2
                 	STS  @0+(@1)+1,R@3
                 	.ENDM
                 
                 	.MACRO __PUTBZR
                 	STD  Z+@1,R@0
                 	.ENDM
                 
                 	.MACRO __PUTWZR
                 	STD  Z+@2,R@0
                 	STD  Z+@2+1,R@1
                 	.ENDM
                 
                 	.MACRO __GETW1R
                 	MOV  R30,R@0
                 	MOV  R31,R@1
                 	.ENDM
                 
                 	.MACRO __GETW2R
                 	MOV  R26,R@0
                 	MOV  R27,R@1
                 	.ENDM
                 
                 	.MACRO __GETWRN
                 	LDI  R@0,LOW(@2)
                 	LDI  R@1,HIGH(@2)
                 	.ENDM
                 
                 	.MACRO __PUTW1R
                 	MOV  R@0,R30
                 	MOV  R@1,R31
                 	.ENDM
                 
                 	.MACRO __PUTW2R
                 	MOV  R@0,R26
                 	MOV  R@1,R27
                 	.ENDM
                 
                 	.MACRO __ADDWRN
                 	SUBI R@0,LOW(-@2)
                 	SBCI R@1,HIGH(-@2)
                 	.ENDM
                 
                 	.MACRO __ADDWRR
                 	ADD  R@0,R@2
                 	ADC  R@1,R@3
                 	.ENDM
                 
                 	.MACRO __SUBWRN
                 	SUBI R@0,LOW(@2)
                 	SBCI R@1,HIGH(@2)
                 	.ENDM
                 
                 	.MACRO __SUBWRR
                 	SUB  R@0,R@2
                 	SBC  R@1,R@3
                 	.ENDM
                 
                 	.MACRO __ANDWRN
                 	ANDI R@0,LOW(@2)
                 	ANDI R@1,HIGH(@2)
                 	.ENDM
                 
                 	.MACRO __ANDWRR
                 	AND  R@0,R@2
                 	AND  R@1,R@3
                 	.ENDM
                 
                 	.MACRO __ORWRN
                 	ORI  R@0,LOW(@2)
                 	ORI  R@1,HIGH(@2)
                 	.ENDM
                 
                 	.MACRO __ORWRR
                 	OR   R@0,R@2
                 	OR   R@1,R@3
                 	.ENDM
                 
                 	.MACRO __EORWRR
                 	EOR  R@0,R@2
                 	EOR  R@1,R@3
                 	.ENDM
                 
                 	.MACRO __GETWRS
                 	LDD  R@0,Y+@2
                 	LDD  R@1,Y+@2+1
                 	.ENDM
                 
                 	.MACRO __PUTBSR
                 	STD  Y+@1,R@0
                 	.ENDM
                 
                 	.MACRO __PUTWSR
                 	STD  Y+@2,R@0
                 	STD  Y+@2+1,R@1
                 	.ENDM
                 
                 	.MACRO __MOVEWRR
                 	MOV  R@0,R@2
                 	MOV  R@1,R@3
                 	.ENDM
                 
                 	.MACRO __INWR
                 	IN   R@0,@2
                 	IN   R@1,@2+1
                 	.ENDM
                 
                 	.MACRO __OUTWR
                 	OUT  @2+1,R@1
                 	OUT  @2,R@0
                 	.ENDM
                 
                 	.MACRO __CALL1MN
                 	LDS  R30,@0+(@1)
                 	LDS  R31,@0+(@1)+1
                 	ICALL
                 	.ENDM
                 
                 	.MACRO __CALL1FN
                 	LDI  R30,LOW(2*@0+(@1))
                 	LDI  R31,HIGH(2*@0+(@1))
                 	CALL __GETW1PF
                 	ICALL
                 	.ENDM
                 
                 	.MACRO __CALL2EN
                 	PUSH R26
                 	PUSH R27
                 	LDI  R26,LOW(@0+(@1))
                 	LDI  R27,HIGH(@0+(@1))
                 	CALL __EEPROMRDW
                 	POP  R27
                 	POP  R26
                 	ICALL
                 	.ENDM
                 
                 	.MACRO __CALL2EX
                 	SUBI R26,LOW(-@0)
                 	SBCI R27,HIGH(-@0)
                 	CALL __EEPROMRDD
                 	ICALL
                 	.ENDM
                 
                 	.MACRO __GETW1STACK
                 	IN   R30,SPL
                 	IN   R31,SPH
                 	ADIW R30,@0+1
                 	LD   R0,Z+
                 	LD   R31,Z
                 	MOV  R30,R0
                 	.ENDM
                 
                 	.MACRO __GETD1STACK
                 	IN   R30,SPL
                 	IN   R31,SPH
                 	ADIW R30,@0+1
                 	LD   R0,Z+
                 	LD   R1,Z+
                 	LD   R22,Z
                 	MOVW R30,R0
                 	.ENDM
                 
                 	.MACRO __NBST
                 	BST  R@0,@1
                 	IN   R30,SREG
                 	LDI  R31,0x40
                 	EOR  R30,R31
                 	OUT  SREG,R30
                 	.ENDM
                 
                 
                 	.MACRO __PUTB1SN
                 	LDD  R26,Y+@0
                 	LDD  R27,Y+@0+1
                 	SUBI R26,LOW(-@1)
                 	SBCI R27,HIGH(-@1)
                 	ST   X,R30
                 	.ENDM
                 
                 	.MACRO __PUTW1SN
                 	LDD  R26,Y+@0
                 	LDD  R27,Y+@0+1
                 	SUBI R26,LOW(-@1)
                 	SBCI R27,HIGH(-@1)
                 	ST   X+,R30
                 	ST   X,R31
                 	.ENDM
                 
                 	.MACRO __PUTD1SN
                 	LDD  R26,Y+@0
                 	LDD  R27,Y+@0+1
                 	SUBI R26,LOW(-@1)
                 	SBCI R27,HIGH(-@1)
                 	CALL __PUTDP1
                 	.ENDM
                 
                 	.MACRO __PUTB1SNS
                 	LDD  R26,Y+@0
                 	LDD  R27,Y+@0+1
                 	ADIW R26,@1
                 	ST   X,R30
                 	.ENDM
                 
                 	.MACRO __PUTW1SNS
                 	LDD  R26,Y+@0
                 	LDD  R27,Y+@0+1
                 	ADIW R26,@1
                 	ST   X+,R30
                 	ST   X,R31
                 	.ENDM
                 
                 	.MACRO __PUTD1SNS
                 	LDD  R26,Y+@0
                 	LDD  R27,Y+@0+1
                 	ADIW R26,@1
                 	CALL __PUTDP1
                 	.ENDM
                 
                 	.MACRO __PUTB1PMN
                 	LDS  R26,@0
                 	LDS  R27,@0+1
                 	SUBI R26,LOW(-@1)
                 	SBCI R27,HIGH(-@1)
                 	ST   X,R30
                 	.ENDM
                 
                 	.MACRO __PUTW1PMN
                 	LDS  R26,@0
                 	LDS  R27,@0+1
                 	SUBI R26,LOW(-@1)
                 	SBCI R27,HIGH(-@1)
                 	ST   X+,R30
                 	ST   X,R31
                 	.ENDM
                 
                 	.MACRO __PUTD1PMN
                 	LDS  R26,@0
                 	LDS  R27,@0+1
                 	SUBI R26,LOW(-@1)
                 	SBCI R27,HIGH(-@1)
                 	CALL __PUTDP1
                 	.ENDM
                 
                 	.MACRO __PUTB1PMNS
                 	LDS  R26,@0
                 	LDS  R27,@0+1
                 	ADIW R26,@1
                 	ST   X,R30
                 	.ENDM
                 
                 	.MACRO __PUTW1PMNS
                 	LDS  R26,@0
                 	LDS  R27,@0+1
                 	ADIW R26,@1
                 	ST   X+,R30
                 	ST   X,R31
                 	.ENDM
                 
                 	.MACRO __PUTD1PMNS
                 	LDS  R26,@0
                 	LDS  R27,@0+1
                 	ADIW R26,@1
                 	CALL __PUTDP1
                 	.ENDM
                 
                 	.MACRO __PUTB1RN
                 	MOVW R26,R@0
                 	SUBI R26,LOW(-@1)
                 	SBCI R27,HIGH(-@1)
                 	ST   X,R30
                 	.ENDM
                 
                 	.MACRO __PUTW1RN
                 	MOVW R26,R@0
                 	SUBI R26,LOW(-@1)
                 	SBCI R27,HIGH(-@1)
                 	ST   X+,R30
                 	ST   X,R31
                 	.ENDM
                 
                 	.MACRO __PUTD1RN
                 	MOVW R26,R@0
                 	SUBI R26,LOW(-@1)
                 	SBCI R27,HIGH(-@1)
                 	CALL __PUTDP1
                 	.ENDM
                 
                 	.MACRO __PUTB1RNS
                 	MOVW R26,R@0
                 	ADIW R26,@1
                 	ST   X,R30
                 	.ENDM
                 
                 	.MACRO __PUTW1RNS
                 	MOVW R26,R@0
                 	ADIW R26,@1
                 	ST   X+,R30
                 	ST   X,R31
                 	.ENDM
                 
                 	.MACRO __PUTD1RNS
                 	MOVW R26,R@0
                 	ADIW R26,@1
                 	CALL __PUTDP1
                 	.ENDM
                 
                 	.MACRO __PUTB1RON
                 	MOV  R26,R@0
                 	MOV  R27,R@1
                 	SUBI R26,LOW(-@2)
                 	SBCI R27,HIGH(-@2)
                 	ST   X,R30
                 	.ENDM
                 
                 	.MACRO __PUTW1RON
                 	MOV  R26,R@0
                 	MOV  R27,R@1
                 	SUBI R26,LOW(-@2)
                 	SBCI R27,HIGH(-@2)
                 	ST   X+,R30
                 	ST   X,R31
                 	.ENDM
                 
                 	.MACRO __PUTD1RON
                 	MOV  R26,R@0
                 	MOV  R27,R@1
                 	SUBI R26,LOW(-@2)
                 	SBCI R27,HIGH(-@2)
                 	CALL __PUTDP1
                 	.ENDM
                 
                 	.MACRO __PUTB1RONS
                 	MOV  R26,R@0
                 	MOV  R27,R@1
                 	ADIW R26,@2
                 	ST   X,R30
                 	.ENDM
                 
                 	.MACRO __PUTW1RONS
                 	MOV  R26,R@0
                 	MOV  R27,R@1
                 	ADIW R26,@2
                 	ST   X+,R30
                 	ST   X,R31
                 	.ENDM
                 
                 	.MACRO __PUTD1RONS
                 	MOV  R26,R@0
                 	MOV  R27,R@1
                 	ADIW R26,@2
                 	CALL __PUTDP1
                 	.ENDM
                 
                 
                 	.MACRO __GETB1SX
                 	MOVW R30,R28
                 	SUBI R30,LOW(-@0)
                 	SBCI R31,HIGH(-@0)
                 	LD   R30,Z
                 	.ENDM
                 
                 	.MACRO __GETB1HSX
                 	MOVW R30,R28
                 	SUBI R30,LOW(-@0)
                 	SBCI R31,HIGH(-@0)
                 	LD   R31,Z
                 	.ENDM
                 
                 	.MACRO __GETW1SX
                 	MOVW R30,R28
                 	SUBI R30,LOW(-@0)
                 	SBCI R31,HIGH(-@0)
                 	LD   R0,Z+
                 	LD   R31,Z
                 	MOV  R30,R0
                 	.ENDM
                 
                 	.MACRO __GETD1SX
                 	MOVW R30,R28
                 	SUBI R30,LOW(-@0)
                 	SBCI R31,HIGH(-@0)
                 	LD   R0,Z+
                 	LD   R1,Z+
                 	LD   R22,Z+
                 	LD   R23,Z
                 	MOVW R30,R0
                 	.ENDM
                 
                 	.MACRO __GETB2SX
                 	MOVW R26,R28
                 	SUBI R26,LOW(-@0)
                 	SBCI R27,HIGH(-@0)
                 	LD   R26,X
                 	.ENDM
                 
                 	.MACRO __GETW2SX
                 	MOVW R26,R28
                 	SUBI R26,LOW(-@0)
                 	SBCI R27,HIGH(-@0)
                 	LD   R0,X+
                 	LD   R27,X
                 	MOV  R26,R0
                 	.ENDM
                 
                 	.MACRO __GETD2SX
                 	MOVW R26,R28
                 	SUBI R26,LOW(-@0)
                 	SBCI R27,HIGH(-@0)
                 	LD   R0,X+
                 	LD   R1,X+
                 	LD   R24,X+
                 	LD   R25,X
                 	MOVW R26,R0
                 	.ENDM
                 
                 	.MACRO __GETBRSX
                 	MOVW R30,R28
                 	SUBI R30,LOW(-@1)
                 	SBCI R31,HIGH(-@1)
                 	LD   R@0,Z
                 	.ENDM
                 
                 	.MACRO __GETWRSX
                 	MOVW R30,R28
                 	SUBI R30,LOW(-@2)
                 	SBCI R31,HIGH(-@2)
                 	LD   R@0,Z+
                 	LD   R@1,Z
                 	.ENDM
                 
                 	.MACRO __GETBRSX2
                 	MOVW R26,R28
                 	SUBI R26,LOW(-@1)
                 	SBCI R27,HIGH(-@1)
                 	LD   R@0,X
                 	.ENDM
                 
                 	.MACRO __GETWRSX2
                 	MOVW R26,R28
                 	SUBI R26,LOW(-@2)
                 	SBCI R27,HIGH(-@2)
                 	LD   R@0,X+
                 	LD   R@1,X
                 	.ENDM
                 
                 	.MACRO __LSLW8SX
                 	MOVW R30,R28
                 	SUBI R30,LOW(-@0)
                 	SBCI R31,HIGH(-@0)
                 	LD   R31,Z
                 	CLR  R30
                 	.ENDM
                 
                 	.MACRO __PUTB1SX
                 	MOVW R26,R28
                 	SUBI R26,LOW(-@0)
                 	SBCI R27,HIGH(-@0)
                 	ST   X,R30
                 	.ENDM
                 
                 	.MACRO __PUTW1SX
                 	MOVW R26,R28
                 	SUBI R26,LOW(-@0)
                 	SBCI R27,HIGH(-@0)
                 	ST   X+,R30
                 	ST   X,R31
                 	.ENDM
                 
                 	.MACRO __PUTD1SX
                 	MOVW R26,R28
                 	SUBI R26,LOW(-@0)
                 	SBCI R27,HIGH(-@0)
                 	ST   X+,R30
                 	ST   X+,R31
                 	ST   X+,R22
                 	ST   X,R23
                 	.ENDM
                 
                 	.MACRO __CLRW1SX
                 	MOVW R26,R28
                 	SUBI R26,LOW(-@0)
                 	SBCI R27,HIGH(-@0)
                 	ST   X+,R30
                 	ST   X,R30
                 	.ENDM
                 
                 	.MACRO __CLRD1SX
                 	MOVW R26,R28
                 	SUBI R26,LOW(-@0)
                 	SBCI R27,HIGH(-@0)
                 	ST   X+,R30
                 	ST   X+,R30
                 	ST   X+,R30
                 	ST   X,R30
                 	.ENDM
                 
                 	.MACRO __PUTB2SX
                 	MOVW R30,R28
                 	SUBI R30,LOW(-@0)
                 	SBCI R31,HIGH(-@0)
                 	ST   Z,R26
                 	.ENDM
                 
                 	.MACRO __PUTW2SX
                 	MOVW R30,R28
                 	SUBI R30,LOW(-@0)
                 	SBCI R31,HIGH(-@0)
                 	ST   Z+,R26
                 	ST   Z,R27
                 	.ENDM
                 
                 	.MACRO __PUTD2SX
                 	MOVW R30,R28
                 	SUBI R30,LOW(-@0)
                 	SBCI R31,HIGH(-@0)
                 	ST   Z+,R26
                 	ST   Z+,R27
                 	ST   Z+,R24
                 	ST   Z,R25
                 	.ENDM
                 
                 	.MACRO __PUTBSRX
                 	MOVW R30,R28
                 	SUBI R30,LOW(-@1)
                 	SBCI R31,HIGH(-@1)
                 	ST   Z,R@0
                 	.ENDM
                 
                 	.MACRO __PUTWSRX
                 	MOVW R30,R28
                 	SUBI R30,LOW(-@2)
                 	SBCI R31,HIGH(-@2)
                 	ST   Z+,R@0
                 	ST   Z,R@1
                 	.ENDM
                 
                 	.MACRO __PUTB1SNX
                 	MOVW R26,R28
                 	SUBI R26,LOW(-@0)
                 	SBCI R27,HIGH(-@0)
                 	LD   R0,X+
                 	LD   R27,X
                 	MOV  R26,R0
                 	SUBI R26,LOW(-@1)
                 	SBCI R27,HIGH(-@1)
                 	ST   X,R30
                 	.ENDM
                 
                 	.MACRO __PUTW1SNX
                 	MOVW R26,R28
                 	SUBI R26,LOW(-@0)
                 	SBCI R27,HIGH(-@0)
                 	LD   R0,X+
                 	LD   R27,X
                 	MOV  R26,R0
                 	SUBI R26,LOW(-@1)
                 	SBCI R27,HIGH(-@1)
                 	ST   X+,R30
                 	ST   X,R31
                 	.ENDM
                 
                 	.MACRO __PUTD1SNX
                 	MOVW R26,R28
                 	SUBI R26,LOW(-@0)
                 	SBCI R27,HIGH(-@0)
                 	LD   R0,X+
                 	LD   R27,X
                 	MOV  R26,R0
                 	SUBI R26,LOW(-@1)
                 	SBCI R27,HIGH(-@1)
                 	ST   X+,R30
                 	ST   X+,R31
                 	ST   X+,R22
                 	ST   X,R23
                 	.ENDM
                 
                 	.MACRO __MULBRR
                 	MULS R@0,R@1
                 	MOVW R30,R0
                 	.ENDM
                 
                 	.MACRO __MULBRRU
                 	MUL  R@0,R@1
                 	MOVW R30,R0
                 	.ENDM
                 
                 	.MACRO __MULBRR0
                 	MULS R@0,R@1
                 	.ENDM
                 
                 	.MACRO __MULBRRU0
                 	MUL  R@0,R@1
                 	.ENDM
                 
                 	.MACRO __MULBNWRU
                 	LDI  R26,@2
                 	MUL  R26,R@0
                 	MOVW R30,R0
                 	MUL  R26,R@1
                 	ADD  R31,R0
                 	.ENDM
                 
                 ;NAME DEFINITIONS FOR GLOBAL VARIABLES ALLOCATED TO REGISTERS
                 	.DEF _rx_wr_index0=R4
                 	.DEF _rx_rd_index0=R3
                 	.DEF _rx_counter0=R6
                 	.DEF _tx_wr_index0=R5
                 	.DEF _tx_rd_index0=R8
                 	.DEF _tx_counter0=R7
                 	.DEF _rx_wr_index1=R10
                 	.DEF _rx_rd_index1=R9
                 	.DEF _rx_counter1=R12
                 	.DEF _tx_wr_index1=R11
                 	.DEF _tx_rd_index1=R14
                 	.DEF _tx_counter1=R13
                 
                 ;GPIOR0 INITIALIZATION VALUE
                 	.EQU __GPIOR0_INIT=0x00
                 
                 	.CSEG
                 	.ORG 0x00
                 
                 ;START OF CODE MARKER
                 __START_OF_CODE:
                 
                 ;INTERRUPT VECTORS
000000 940c 05b8 	JMP  __RESET
000002 940c 0000 	JMP  0x00
000004 940c 0000 	JMP  0x00
000006 940c 0000 	JMP  0x00
000008 940c 07a5 	JMP  _pin_change_isr0
00000a 940c 0000 	JMP  0x00
00000c 940c 0000 	JMP  0x00
00000e 940c 0000 	JMP  0x00
000010 940c 0000 	JMP  0x00
000012 940c 078e 	JMP  _timer2_compa_isr
000014 940c 0000 	JMP  0x00
000016 940c 0000 	JMP  0x00
000018 940c 0000 	JMP  0x00
00001a 940c 0788 	JMP  _timer1_compa_isr
00001c 940c 0000 	JMP  0x00
00001e 940c 0000 	JMP  0x00
000020 940c 0773 	JMP  _timer0_compa_isr
000022 940c 0000 	JMP  0x00
000024 940c 0000 	JMP  0x00
000026 940c 0000 	JMP  0x00
000028 940c 06b0 	JMP  _usart0_rx_isr
00002a 940c 0000 	JMP  0x00
00002c 940c 06ce 	JMP  _usart0_tx_isr
00002e 940c 0000 	JMP  0x00
000030 940c 0000 	JMP  0x00
000032 940c 0000 	JMP  0x00
000034 940c 0000 	JMP  0x00
000036 940c 0000 	JMP  0x00
000038 940c 0703 	JMP  _usart1_rx_isr
00003a 940c 0000 	JMP  0x00
00003c 940c 073a 	JMP  _usart1_tx_isr
                 
                 _hextable:
00003e ffff
00003f ffff
000040 ffff
000041 ffff      	.DB  0xFF,0xFF,0xFF,0xFF,0xFF,0xFF,0xFF,0xFF
000042 ffff
000043 ffff
000044 ffff
000045 ffff      	.DB  0xFF,0xFF,0xFF,0xFF,0xFF,0xFF,0xFF,0xFF
000046 ffff
000047 ffff
000048 ffff
000049 ffff      	.DB  0xFF,0xFF,0xFF,0xFF,0xFF,0xFF,0xFF,0xFF
00004a ffff
00004b ffff
00004c ffff
00004d ffff      	.DB  0xFF,0xFF,0xFF,0xFF,0xFF,0xFF,0xFF,0xFF
00004e ffff
00004f ffff
000050 ffff
000051 ffff      	.DB  0xFF,0xFF,0xFF,0xFF,0xFF,0xFF,0xFF,0xFF
000052 ffff
000053 ffff
000054 ffff
000055 ffff      	.DB  0xFF,0xFF,0xFF,0xFF,0xFF,0xFF,0xFF,0xFF
000056 0100
000057 0302
000058 0504
000059 0706      	.DB  0x0,0x1,0x2,0x3,0x4,0x5,0x6,0x7
00005a 0908
00005b ffff
00005c ffff
00005d ffff      	.DB  0x8,0x9,0xFF,0xFF,0xFF,0xFF,0xFF,0xFF
00005e 0aff
00005f 0c0b
000060 0e0d
000061 ff0f      	.DB  0xFF,0xA,0xB,0xC,0xD,0xE,0xF,0xFF
000062 ffff
000063 ffff
000064 ffff
000065 ffff      	.DB  0xFF,0xFF,0xFF,0xFF,0xFF,0xFF,0xFF,0xFF
000066 ffff
000067 ffff
000068 ffff
000069 ffff      	.DB  0xFF,0xFF,0xFF,0xFF,0xFF,0xFF,0xFF,0xFF
00006a ffff
00006b ffff
00006c ffff
00006d ffff      	.DB  0xFF,0xFF,0xFF,0xFF,0xFF,0xFF,0xFF,0xFF
00006e 0aff
00006f 0c0b
000070 0e0d
000071 ff0f      	.DB  0xFF,0xA,0xB,0xC,0xD,0xE,0xF,0xFF
000072 ffff
000073 ffff
000074 ffff
000075 ffff      	.DB  0xFF,0xFF,0xFF,0xFF,0xFF,0xFF,0xFF,0xFF
000076 ffff
000077 ffff
000078 ffff
000079 ffff      	.DB  0xFF,0xFF,0xFF,0xFF,0xFF,0xFF,0xFF,0xFF
00007a ffff
00007b ffff
00007c ffff
00007d ffff      	.DB  0xFF,0xFF,0xFF,0xFF,0xFF,0xFF,0xFF,0xFF
00007e ffff
00007f ffff
000080 ffff
000081 ffff      	.DB  0xFF,0xFF,0xFF,0xFF,0xFF,0xFF,0xFF,0xFF
000082 ffff
000083 ffff
000084 ffff
000085 ffff      	.DB  0xFF,0xFF,0xFF,0xFF,0xFF,0xFF,0xFF,0xFF
000086 ffff
000087 ffff
000088 ffff
000089 ffff      	.DB  0xFF,0xFF,0xFF,0xFF,0xFF,0xFF,0xFF,0xFF
00008a ffff
00008b ffff
00008c ffff
00008d ffff      	.DB  0xFF,0xFF,0xFF,0xFF,0xFF,0xFF,0xFF,0xFF
00008e ffff
00008f ffff
000090 ffff
000091 ffff      	.DB  0xFF,0xFF,0xFF,0xFF,0xFF,0xFF,0xFF,0xFF
000092 ffff
000093 ffff
000094 ffff
000095 ffff      	.DB  0xFF,0xFF,0xFF,0xFF,0xFF,0xFF,0xFF,0xFF
000096 ffff
000097 ffff
000098 ffff
000099 ffff      	.DB  0xFF,0xFF,0xFF,0xFF,0xFF,0xFF,0xFF,0xFF
00009a ffff
00009b ffff
00009c ffff
00009d ffff      	.DB  0xFF,0xFF,0xFF,0xFF,0xFF,0xFF,0xFF,0xFF
00009e ffff
00009f ffff
0000a0 ffff
0000a1 ffff      	.DB  0xFF,0xFF,0xFF,0xFF,0xFF,0xFF,0xFF,0xFF
0000a2 ffff
0000a3 ffff
0000a4 ffff
0000a5 ffff      	.DB  0xFF,0xFF,0xFF,0xFF,0xFF,0xFF,0xFF,0xFF
0000a6 ffff
0000a7 ffff
0000a8 ffff
0000a9 ffff      	.DB  0xFF,0xFF,0xFF,0xFF,0xFF,0xFF,0xFF,0xFF
0000aa ffff
0000ab ffff
0000ac ffff
0000ad ffff      	.DB  0xFF,0xFF,0xFF,0xFF,0xFF,0xFF,0xFF,0xFF
0000ae ffff
0000af ffff
0000b0 ffff
0000b1 ffff      	.DB  0xFF,0xFF,0xFF,0xFF,0xFF,0xFF,0xFF,0xFF
0000b2 ffff
0000b3 ffff
0000b4 ffff
0000b5 ffff      	.DB  0xFF,0xFF,0xFF,0xFF,0xFF,0xFF,0xFF,0xFF
0000b6 ffff
0000b7 ffff
0000b8 ffff
0000b9 ffff      	.DB  0xFF,0xFF,0xFF,0xFF,0xFF,0xFF,0xFF,0xFF
0000ba ffff
0000bb ffff
0000bc ffff
0000bd ffff      	.DB  0xFF,0xFF,0xFF,0xFF,0xFF,0xFF,0xFF,0xFF
                 
                 _0x2008D:
Z:\M164A metrics_inserter v1.06\Debug\List\metrics_inserter_uC.asm(1180): warning: .cseg .db misalignment - padding zero byte
0000be 00ff      	.DB  0xFF
                 _0x20000:
0000bf 6623
0000c0 6961
0000c1 316c
0000c2 2300      	.DB  0x23,0x66,0x61,0x69,0x6C,0x31,0x0,0x23
0000c3 6166
0000c4 6c69
0000c5 0032
0000c6 6623      	.DB  0x66,0x61,0x69,0x6C,0x32,0x0,0x23,0x66
0000c7 6961
0000c8 336c
0000c9 3a00
0000ca 3130      	.DB  0x61,0x69,0x6C,0x33,0x0,0x3A,0x30,0x31
0000cb 2300
0000cc 6166
0000cd 6c69
0000ce 0034      	.DB  0x0,0x23,0x66,0x61,0x69,0x6C,0x34,0x0
0000cf 303a
0000d0 0032
0000d1 303a
0000d2 0033      	.DB  0x3A,0x30,0x32,0x0,0x3A,0x30,0x33,0x0
0000d3 303a
0000d4 0034
0000d5 3330
0000d6 3430      	.DB  0x3A,0x30,0x34,0x0,0x30,0x33,0x30,0x34
0000d7 2500
0000d8 6c38
0000d9 0078
0000da 4c23      	.DB  0x0,0x25,0x38,0x6C,0x78,0x0,0x23,0x4C
0000db 4352
0000dc 6166
0000dd 6c69
0000de 2300      	.DB  0x52,0x43,0x66,0x61,0x69,0x6C,0x0,0x23
0000df 6166
0000e0 6c69
0000e1 0035
0000e2 3030      	.DB  0x66,0x61,0x69,0x6C,0x35,0x0,0x30,0x30
0000e3 3230
0000e4 2500
0000e5 7834
0000e6 2500      	.DB  0x30,0x32,0x0,0x25,0x34,0x78,0x0,0x25
0000e7 7832
0000e8 2300
0000e9 6572
0000ea 6573      	.DB  0x32,0x78,0x0,0x23,0x72,0x65,0x73,0x65
0000eb 0d74
0000ec 000a
0000ed 303a
0000ee 3031      	.DB  0x74,0xD,0xA,0x0,0x3A,0x30,0x31,0x30
0000ef 3033
0000f0 3030
0000f1 3037
0000f2 3030      	.DB  0x33,0x30,0x30,0x30,0x37,0x30,0x30,0x30
0000f3 4632
0000f4 0d33
0000f5 000a
0000f6 7223      	.DB  0x32,0x46,0x33,0xD,0xA,0x0,0x23,0x72
0000f7 7465
0000f8 7972
0000f9 715f
0000fa 0a31      	.DB  0x65,0x74,0x72,0x79,0x5F,0x71,0x31,0xA
0000fb 2300
0000fc 6166
0000fd 6c69
0000fe 6465      	.DB  0x0,0x23,0x66,0x61,0x69,0x6C,0x65,0x64
0000ff 715f
000100 2d31
000101 633e
000102 5f31      	.DB  0x5F,0x71,0x31,0x2D,0x3E,0x63,0x31,0x5F
000103 6166
000104 6c69
000105 000a
000106 303a      	.DB  0x66,0x61,0x69,0x6C,0xA,0x0,0x3A,0x30
000107 3031
000108 3033
000109 3130
00010a 3033      	.DB  0x31,0x30,0x33,0x30,0x30,0x31,0x33,0x30
00010b 3030
00010c 4532
00010d 0d37
00010e 000a      	.DB  0x30,0x30,0x32,0x45,0x37,0xD,0xA,0x0
00010f 7223
000110 7465
000111 7972
000112 715f      	.DB  0x23,0x72,0x65,0x74,0x72,0x79,0x5F,0x71
000113 0a32
000114 2300
000115 6166
000116 6c69      	.DB  0x32,0xA,0x0,0x23,0x66,0x61,0x69,0x6C
000117 6465
000118 715f
000119 2d32
00011a 633e      	.DB  0x65,0x64,0x5F,0x71,0x32,0x2D,0x3E,0x63
00011b 5f31
00011c 6166
00011d 6c69
00011e 000a      	.DB  0x31,0x5F,0x66,0x61,0x69,0x6C,0xA,0x0
00011f 303a
000120 3031
000121 3033
000122 3130      	.DB  0x3A,0x30,0x31,0x30,0x33,0x30,0x30,0x31
000123 3039
000124 3030
000125 4532
000126 0d31      	.DB  0x39,0x30,0x30,0x30,0x32,0x45,0x31,0xD
000127 000a
000128 7223
000129 7465
00012a 7972      	.DB  0xA,0x0,0x23,0x72,0x65,0x74,0x72,0x79
00012b 715f
00012c 0a33
00012d 2300
00012e 6166      	.DB  0x5F,0x71,0x33,0xA,0x0,0x23,0x66,0x61
00012f 6c69
000130 6465
000131 715f
000132 2d33      	.DB  0x69,0x6C,0x65,0x64,0x5F,0x71,0x33,0x2D
000133 633e
000134 5f31
000135 6166
000136 6c69      	.DB  0x3E,0x63,0x31,0x5F,0x66,0x61,0x69,0x6C
000137 000a
000138 303a
000139 3031
00013a 3033      	.DB  0xA,0x0,0x3A,0x30,0x31,0x30,0x33,0x30
00013b 3030
00013c 3031
00013d 3030
00013e 4632      	.DB  0x30,0x30,0x31,0x30,0x30,0x30,0x32,0x46
00013f 0d39
000140 000a
000141 7223
000142 7465      	.DB  0x39,0xD,0xA,0x0,0x23,0x72,0x65,0x74
000143 7972
000144 715f
000145 0a34
000146 2300      	.DB  0x72,0x79,0x5F,0x71,0x34,0xA,0x0,0x23
000147 6166
000148 6c69
000149 6465
00014a 715f      	.DB  0x66,0x61,0x69,0x6C,0x65,0x64,0x5F,0x71
00014b 2d34
00014c 633e
00014d 5f31
00014e 6166      	.DB  0x34,0x2D,0x3E,0x63,0x31,0x5F,0x66,0x61
00014f 6c69
000150 000a
000151 4143
000152 4c4c      	.DB  0x69,0x6C,0xA,0x0,0x43,0x41,0x4C,0x4C
000153 6920
000154 736e
000155 7265
000156 5f74      	.DB  0x20,0x69,0x6E,0x73,0x65,0x72,0x74,0x5F
000157 6d65
000158 2831
000159 2500
00015a 646c      	.DB  0x65,0x6D,0x31,0x28,0x0,0x25,0x6C,0x64
00015b 252c
00015c 646c
00015d 252c
00015e 646c      	.DB  0x2C,0x25,0x6C,0x64,0x2C,0x25,0x6C,0x64
00015f 252c
000160 646c
000161 3b29
000162 000a      	.DB  0x2C,0x25,0x6C,0x64,0x29,0x3B,0xA,0x0
000163 303a
000164 3032
000165 3033
000166 3030      	.DB  0x3A,0x30,0x32,0x30,0x33,0x30,0x30,0x30
000167 3037
000168 3030
000169 4632
00016a 0d32      	.DB  0x37,0x30,0x30,0x30,0x32,0x46,0x32,0xD
00016b 000a
00016c 7223
00016d 7465
00016e 7972      	.DB  0xA,0x0,0x23,0x72,0x65,0x74,0x72,0x79
00016f 715f
000170 0a35
000171 2300
000172 6166      	.DB  0x5F,0x71,0x35,0xA,0x0,0x23,0x66,0x61
000173 6c69
000174 6465
000175 715f
000176 2d35      	.DB  0x69,0x6C,0x65,0x64,0x5F,0x71,0x35,0x2D
000177 633e
000178 5f32
000179 6166
00017a 6c69      	.DB  0x3E,0x63,0x32,0x5F,0x66,0x61,0x69,0x6C
00017b 000a
00017c 303a
00017d 3032
00017e 3033      	.DB  0xA,0x0,0x3A,0x30,0x32,0x30,0x33,0x30
00017f 3030
000180 3039
000181 3030
000182 4632      	.DB  0x30,0x30,0x39,0x30,0x30,0x30,0x32,0x46
000183 0d30
000184 000a
000185 7223
000186 7465      	.DB  0x30,0xD,0xA,0x0,0x23,0x72,0x65,0x74
000187 7972
000188 715f
000189 0a36
00018a 2300      	.DB  0x72,0x79,0x5F,0x71,0x36,0xA,0x0,0x23
00018b 6166
00018c 6c69
00018d 6465
00018e 715f      	.DB  0x66,0x61,0x69,0x6C,0x65,0x64,0x5F,0x71
00018f 2d36
000190 633e
000191 5f32
000192 6166      	.DB  0x36,0x2D,0x3E,0x63,0x32,0x5F,0x66,0x61
000193 6c69
000194 000a
000195 303a
000196 3032      	.DB  0x69,0x6C,0xA,0x0,0x3A,0x30,0x32,0x30
000197 3033
000198 3030
000199 3042
00019a 3030      	.DB  0x33,0x30,0x30,0x30,0x42,0x30,0x30,0x30
00019b 4532
00019c 0d45
00019d 000a
00019e 7223      	.DB  0x32,0x45,0x45,0xD,0xA,0x0,0x23,0x72
00019f 7465
0001a0 7972
0001a1 715f
0001a2 0a37      	.DB  0x65,0x74,0x72,0x79,0x5F,0x71,0x37,0xA
0001a3 2300
0001a4 6166
0001a5 6c69
0001a6 6465      	.DB  0x0,0x23,0x66,0x61,0x69,0x6C,0x65,0x64
0001a7 715f
0001a8 2d37
0001a9 633e
0001aa 5f32      	.DB  0x5F,0x71,0x37,0x2D,0x3E,0x63,0x32,0x5F
0001ab 6166
0001ac 6c69
0001ad 000a
0001ae 303a      	.DB  0x66,0x61,0x69,0x6C,0xA,0x0,0x3A,0x30
0001af 3032
0001b0 3033
0001b1 3130
0001b2 3033      	.DB  0x32,0x30,0x33,0x30,0x30,0x31,0x33,0x30
0001b3 3030
0001b4 4532
0001b5 0d36
0001b6 000a      	.DB  0x30,0x30,0x32,0x45,0x36,0xD,0xA,0x0
0001b7 7223
0001b8 7465
0001b9 7972
0001ba 715f      	.DB  0x23,0x72,0x65,0x74,0x72,0x79,0x5F,0x71
0001bb 0a38
0001bc 2300
0001bd 6166
0001be 6c69      	.DB  0x38,0xA,0x0,0x23,0x66,0x61,0x69,0x6C
0001bf 6465
0001c0 715f
0001c1 2d38
0001c2 633e      	.DB  0x65,0x64,0x5F,0x71,0x38,0x2D,0x3E,0x63
0001c3 5f32
0001c4 6166
0001c5 6c69
0001c6 000a      	.DB  0x32,0x5F,0x66,0x61,0x69,0x6C,0xA,0x0
0001c7 303a
0001c8 3032
0001c9 3033
0001ca 3130      	.DB  0x3A,0x30,0x32,0x30,0x33,0x30,0x30,0x31
0001cb 3035
0001cc 3030
0001cd 4532
0001ce 0d34      	.DB  0x35,0x30,0x30,0x30,0x32,0x45,0x34,0xD
0001cf 000a
0001d0 7223
0001d1 7465
0001d2 7972      	.DB  0xA,0x0,0x23,0x72,0x65,0x74,0x72,0x79
0001d3 715f
0001d4 0a39
0001d5 2300
0001d6 6166      	.DB  0x5F,0x71,0x39,0xA,0x0,0x23,0x66,0x61
0001d7 6c69
0001d8 6465
0001d9 715f
0001da 2d39      	.DB  0x69,0x6C,0x65,0x64,0x5F,0x71,0x39,0x2D
0001db 633e
0001dc 5f32
0001dd 6166
0001de 6c69      	.DB  0x3E,0x63,0x32,0x5F,0x66,0x61,0x69,0x6C
0001df 000a
0001e0 303a
0001e1 3032
0001e2 3033      	.DB  0xA,0x0,0x3A,0x30,0x32,0x30,0x33,0x30
0001e3 3130
0001e4 3037
0001e5 3030
0001e6 4532      	.DB  0x30,0x31,0x37,0x30,0x30,0x30,0x32,0x45
0001e7 0d32
0001e8 000a
0001e9 7223
0001ea 7465      	.DB  0x32,0xD,0xA,0x0,0x23,0x72,0x65,0x74
0001eb 7972
0001ec 715f
0001ed 3031
0001ee 000a      	.DB  0x72,0x79,0x5F,0x71,0x31,0x30,0xA,0x0
0001ef 6623
0001f0 6961
0001f1 656c
0001f2 5f64      	.DB  0x23,0x66,0x61,0x69,0x6C,0x65,0x64,0x5F
0001f3 3171
0001f4 2d30
0001f5 633e
0001f6 5f32      	.DB  0x71,0x31,0x30,0x2D,0x3E,0x63,0x32,0x5F
0001f7 6166
0001f8 6c69
0001f9 000a
0001fa 303a      	.DB  0x66,0x61,0x69,0x6C,0xA,0x0,0x3A,0x30
0001fb 3032
0001fc 3033
0001fd 3130
0001fe 3039      	.DB  0x32,0x30,0x33,0x30,0x30,0x31,0x39,0x30
0001ff 3030
000200 4532
000201 0d30
000202 000a      	.DB  0x30,0x30,0x32,0x45,0x30,0xD,0xA,0x0
000203 7223
000204 7465
000205 7972
000206 715f      	.DB  0x23,0x72,0x65,0x74,0x72,0x79,0x5F,0x71
000207 3131
000208 000a
000209 6623
00020a 6961      	.DB  0x31,0x31,0xA,0x0,0x23,0x66,0x61,0x69
00020b 656c
00020c 5f64
00020d 3171
00020e 2d31      	.DB  0x6C,0x65,0x64,0x5F,0x71,0x31,0x31,0x2D
00020f 633e
000210 5f32
000211 6166
000212 6c69      	.DB  0x3E,0x63,0x32,0x5F,0x66,0x61,0x69,0x6C
000213 000a
000214 303a
000215 3032
000216 3033      	.DB  0xA,0x0,0x3A,0x30,0x32,0x30,0x33,0x30
000217 3130
000218 3042
000219 3030
00021a 4432      	.DB  0x30,0x31,0x42,0x30,0x30,0x30,0x32,0x44
00021b 0d45
00021c 000a
00021d 7223
00021e 7465      	.DB  0x45,0xD,0xA,0x0,0x23,0x72,0x65,0x74
00021f 7972
000220 715f
000221 3231
000222 000a      	.DB  0x72,0x79,0x5F,0x71,0x31,0x32,0xA,0x0
000223 6623
000224 6961
000225 656c
000226 5f64      	.DB  0x23,0x66,0x61,0x69,0x6C,0x65,0x64,0x5F
000227 3171
000228 2d32
000229 633e
00022a 5f32      	.DB  0x71,0x31,0x32,0x2D,0x3E,0x63,0x32,0x5F
00022b 6166
00022c 6c69
00022d 000a
00022e 303a      	.DB  0x66,0x61,0x69,0x6C,0xA,0x0,0x3A,0x30
00022f 3032
000230 3033
000231 3130
000232 3044      	.DB  0x32,0x30,0x33,0x30,0x30,0x31,0x44,0x30
000233 3030
000234 4432
000235 0d43
000236 000a      	.DB  0x30,0x30,0x32,0x44,0x43,0xD,0xA,0x0
000237 7223
000238 7465
000239 7972
00023a 715f      	.DB  0x23,0x72,0x65,0x74,0x72,0x79,0x5F,0x71
00023b 3331
00023c 000a
00023d 6623
00023e 6961      	.DB  0x31,0x33,0xA,0x0,0x23,0x66,0x61,0x69
00023f 656c
000240 5f64
000241 3171
000242 2d33      	.DB  0x6C,0x65,0x64,0x5F,0x71,0x31,0x33,0x2D
000243 633e
000244 5f32
000245 6166
000246 6c69      	.DB  0x3E,0x63,0x32,0x5F,0x66,0x61,0x69,0x6C
000247 000a
000248 303a
000249 3032
00024a 3033      	.DB  0xA,0x0,0x3A,0x30,0x32,0x30,0x33,0x30
00024b 3130
00024c 3046
00024d 3030
00024e 4432      	.DB  0x30,0x31,0x46,0x30,0x30,0x30,0x32,0x44
00024f 0d41
000250 000a
000251 7223
000252 7465      	.DB  0x41,0xD,0xA,0x0,0x23,0x72,0x65,0x74
000253 7972
000254 715f
000255 3431
000256 000a      	.DB  0x72,0x79,0x5F,0x71,0x31,0x34,0xA,0x0
000257 6623
000258 6961
000259 656c
00025a 5f64      	.DB  0x23,0x66,0x61,0x69,0x6C,0x65,0x64,0x5F
00025b 3171
00025c 2d34
00025d 633e
00025e 5f32      	.DB  0x71,0x31,0x34,0x2D,0x3E,0x63,0x32,0x5F
00025f 6166
000260 6c69
000261 000a
000262 303a      	.DB  0x66,0x61,0x69,0x6C,0xA,0x0,0x3A,0x30
000263 3032
000264 3033
000265 3230
000266 3031      	.DB  0x32,0x30,0x33,0x30,0x30,0x32,0x31,0x30
000267 3030
000268 4432
000269 0d38
00026a 000a      	.DB  0x30,0x30,0x32,0x44,0x38,0xD,0xA,0x0
00026b 7223
00026c 7465
00026d 7972
00026e 715f      	.DB  0x23,0x72,0x65,0x74,0x72,0x79,0x5F,0x71
00026f 3531
000270 000a
000271 6623
000272 6961      	.DB  0x31,0x35,0xA,0x0,0x23,0x66,0x61,0x69
000273 656c
000274 5f64
000275 3171
000276 2d35      	.DB  0x6C,0x65,0x64,0x5F,0x71,0x31,0x35,0x2D
000277 633e
000278 5f32
000279 6166
00027a 6c69      	.DB  0x3E,0x63,0x32,0x5F,0x66,0x61,0x69,0x6C
00027b 000a
00027c 303a
00027d 3032
00027e 3033      	.DB  0xA,0x0,0x3A,0x30,0x32,0x30,0x33,0x30
00027f 3230
000280 3033
000281 3030
000282 4432      	.DB  0x30,0x32,0x33,0x30,0x30,0x30,0x32,0x44
000283 0d36
000284 000a
000285 7223
000286 7465      	.DB  0x36,0xD,0xA,0x0,0x23,0x72,0x65,0x74
000287 7972
000288 715f
000289 3631
00028a 000a      	.DB  0x72,0x79,0x5F,0x71,0x31,0x36,0xA,0x0
00028b 6623
00028c 6961
00028d 656c
00028e 5f64      	.DB  0x23,0x66,0x61,0x69,0x6C,0x65,0x64,0x5F
00028f 3171
000290 2d36
000291 633e
000292 5f32      	.DB  0x71,0x31,0x36,0x2D,0x3E,0x63,0x32,0x5F
000293 6166
000294 6c69
000295 000a
000296 4143      	.DB  0x66,0x61,0x69,0x6C,0xA,0x0,0x43,0x41
000297 4c4c
000298 6920
000299 736e
00029a 7265      	.DB  0x4C,0x4C,0x20,0x69,0x6E,0x73,0x65,0x72
00029b 5f74
00029c 6d65
00029d 2832
00029e 6c25      	.DB  0x74,0x5F,0x65,0x6D,0x32,0x28,0x25,0x6C
00029f 2c64
0002a0 6c25
0002a1 2c64
0002a2 2500      	.DB  0x64,0x2C,0x25,0x6C,0x64,0x2C,0x0,0x25
0002a3 646c
0002a4 252c
0002a5 646c
0002a6 252c      	.DB  0x6C,0x64,0x2C,0x25,0x6C,0x64,0x2C,0x25
0002a7 646c
0002a8 252c
0002a9 646c
0002aa 002c      	.DB  0x6C,0x64,0x2C,0x25,0x6C,0x64,0x2C,0x0
0002ab 303a
0002ac 3033
0002ad 3033
0002ae 3030      	.DB  0x3A,0x30,0x33,0x30,0x33,0x30,0x30,0x30
0002af 3037
0002b0 3030
0002b1 4632
0002b2 0d31      	.DB  0x37,0x30,0x30,0x30,0x32,0x46,0x31,0xD
0002b3 000a
0002b4 7223
0002b5 7465
0002b6 7972      	.DB  0xA,0x0,0x23,0x72,0x65,0x74,0x72,0x79
0002b7 715f
0002b8 3731
0002b9 000a
0002ba 6623      	.DB  0x5F,0x71,0x31,0x37,0xA,0x0,0x23,0x66
0002bb 6961
0002bc 656c
0002bd 5f64
0002be 3171      	.DB  0x61,0x69,0x6C,0x65,0x64,0x5F,0x71,0x31
0002bf 2d37
0002c0 633e
0002c1 5f33
0002c2 6166      	.DB  0x37,0x2D,0x3E,0x63,0x33,0x5F,0x66,0x61
0002c3 6c69
0002c4 000a
0002c5 303a
0002c6 3033      	.DB  0x69,0x6C,0xA,0x0,0x3A,0x30,0x33,0x30
0002c7 3033
0002c8 3030
0002c9 3039
0002ca 3030      	.DB  0x33,0x30,0x30,0x30,0x39,0x30,0x30,0x30
0002cb 4532
0002cc 0d46
0002cd 000a
0002ce 7223      	.DB  0x32,0x45,0x46,0xD,0xA,0x0,0x23,0x72
0002cf 7465
0002d0 7972
0002d1 715f
0002d2 3831      	.DB  0x65,0x74,0x72,0x79,0x5F,0x71,0x31,0x38
0002d3 000a
0002d4 6623
0002d5 6961
0002d6 656c      	.DB  0xA,0x0,0x23,0x66,0x61,0x69,0x6C,0x65
0002d7 5f64
0002d8 3171
0002d9 2d38
0002da 633e      	.DB  0x64,0x5F,0x71,0x31,0x38,0x2D,0x3E,0x63
0002db 5f33
0002dc 6166
0002dd 6c69
0002de 000a      	.DB  0x33,0x5F,0x66,0x61,0x69,0x6C,0xA,0x0
0002df 303a
0002e0 3033
0002e1 3033
0002e2 3030      	.DB  0x3A,0x30,0x33,0x30,0x33,0x30,0x30,0x30
0002e3 3042
0002e4 3030
0002e5 4532
0002e6 0d44      	.DB  0x42,0x30,0x30,0x30,0x32,0x45,0x44,0xD
0002e7 000a
0002e8 7223
0002e9 7465
0002ea 7972      	.DB  0xA,0x0,0x23,0x72,0x65,0x74,0x72,0x79
0002eb 715f
0002ec 3931
0002ed 000a
0002ee 6623      	.DB  0x5F,0x71,0x31,0x39,0xA,0x0,0x23,0x66
0002ef 6961
0002f0 656c
0002f1 5f64
0002f2 3171      	.DB  0x61,0x69,0x6C,0x65,0x64,0x5F,0x71,0x31
0002f3 2d39
0002f4 633e
0002f5 5f33
0002f6 6166      	.DB  0x39,0x2D,0x3E,0x63,0x33,0x5F,0x66,0x61
0002f7 6c69
0002f8 000a
0002f9 303a
0002fa 3033      	.DB  0x69,0x6C,0xA,0x0,0x3A,0x30,0x33,0x30
0002fb 3033
0002fc 3130
0002fd 3033
0002fe 3030      	.DB  0x33,0x30,0x30,0x31,0x33,0x30,0x30,0x30
0002ff 4532
000300 0d35
000301 000a
000302 7223      	.DB  0x32,0x45,0x35,0xD,0xA,0x0,0x23,0x72
000303 7465
000304 7972
000305 715f
000306 3032      	.DB  0x65,0x74,0x72,0x79,0x5F,0x71,0x32,0x30
000307 000a
000308 6623
000309 6961
00030a 656c      	.DB  0xA,0x0,0x23,0x66,0x61,0x69,0x6C,0x65
00030b 5f64
00030c 3271
00030d 2d30
00030e 633e      	.DB  0x64,0x5F,0x71,0x32,0x30,0x2D,0x3E,0x63
00030f 5f33
000310 6166
000311 6c69
000312 000a      	.DB  0x33,0x5F,0x66,0x61,0x69,0x6C,0xA,0x0
000313 303a
000314 3033
000315 3033
000316 3130      	.DB  0x3A,0x30,0x33,0x30,0x33,0x30,0x30,0x31
000317 3035
000318 3030
000319 4532
00031a 0d33      	.DB  0x35,0x30,0x30,0x30,0x32,0x45,0x33,0xD
00031b 000a
00031c 7223
00031d 7465
00031e 7972      	.DB  0xA,0x0,0x23,0x72,0x65,0x74,0x72,0x79
00031f 715f
000320 3132
000321 000a
000322 6623      	.DB  0x5F,0x71,0x32,0x31,0xA,0x0,0x23,0x66
000323 6961
000324 656c
000325 5f64
000326 3271      	.DB  0x61,0x69,0x6C,0x65,0x64,0x5F,0x71,0x32
000327 2d31
000328 633e
000329 5f33
00032a 6166      	.DB  0x31,0x2D,0x3E,0x63,0x33,0x5F,0x66,0x61
00032b 6c69
00032c 000a
00032d 303a
00032e 3033      	.DB  0x69,0x6C,0xA,0x0,0x3A,0x30,0x33,0x30
00032f 3033
000330 3130
000331 3037
000332 3030      	.DB  0x33,0x30,0x30,0x31,0x37,0x30,0x30,0x30
000333 4532
000334 0d31
000335 000a
000336 7223      	.DB  0x32,0x45,0x31,0xD,0xA,0x0,0x23,0x72
000337 7465
000338 7972
000339 715f
00033a 3232      	.DB  0x65,0x74,0x72,0x79,0x5F,0x71,0x32,0x32
00033b 000a
00033c 6623
00033d 6961
00033e 656c      	.DB  0xA,0x0,0x23,0x66,0x61,0x69,0x6C,0x65
00033f 5f64
000340 3271
000341 2d32
000342 633e      	.DB  0x64,0x5F,0x71,0x32,0x32,0x2D,0x3E,0x63
000343 5f33
000344 6166
000345 6c69
000346 000a      	.DB  0x33,0x5F,0x66,0x61,0x69,0x6C,0xA,0x0
000347 303a
000348 3033
000349 3033
00034a 3130      	.DB  0x3A,0x30,0x33,0x30,0x33,0x30,0x30,0x31
00034b 3039
00034c 3030
00034d 4432
00034e 0d46      	.DB  0x39,0x30,0x30,0x30,0x32,0x44,0x46,0xD
00034f 000a
000350 7223
000351 7465
000352 7972      	.DB  0xA,0x0,0x23,0x72,0x65,0x74,0x72,0x79
000353 715f
000354 3332
000355 000a
000356 6623      	.DB  0x5F,0x71,0x32,0x33,0xA,0x0,0x23,0x66
000357 6961
000358 656c
000359 5f64
00035a 3271      	.DB  0x61,0x69,0x6C,0x65,0x64,0x5F,0x71,0x32
00035b 2d33
00035c 633e
00035d 5f33
00035e 6166      	.DB  0x33,0x2D,0x3E,0x63,0x33,0x5F,0x66,0x61
00035f 6c69
000360 000a
000361 303a
000362 3033      	.DB  0x69,0x6C,0xA,0x0,0x3A,0x30,0x33,0x30
000363 3033
000364 3130
000365 3042
000366 3030      	.DB  0x33,0x30,0x30,0x31,0x42,0x30,0x30,0x30
000367 4432
000368 0d44
000369 000a
00036a 7223      	.DB  0x32,0x44,0x44,0xD,0xA,0x0,0x23,0x72
00036b 7465
00036c 7972
00036d 715f
00036e 3432      	.DB  0x65,0x74,0x72,0x79,0x5F,0x71,0x32,0x34
00036f 000a
000370 6623
000371 6961
000372 656c      	.DB  0xA,0x0,0x23,0x66,0x61,0x69,0x6C,0x65
000373 5f64
000374 3271
000375 2d34
000376 633e      	.DB  0x64,0x5F,0x71,0x32,0x34,0x2D,0x3E,0x63
000377 5f33
000378 6166
000379 6c69
00037a 000a      	.DB  0x33,0x5F,0x66,0x61,0x69,0x6C,0xA,0x0
00037b 303a
00037c 3033
00037d 3033
00037e 3130      	.DB  0x3A,0x30,0x33,0x30,0x33,0x30,0x30,0x31
00037f 3044
000380 3030
000381 4432
000382 0d42      	.DB  0x44,0x30,0x30,0x30,0x32,0x44,0x42,0xD
000383 000a
000384 7223
000385 7465
000386 7972      	.DB  0xA,0x0,0x23,0x72,0x65,0x74,0x72,0x79
000387 715f
000388 3532
000389 000a
00038a 6623      	.DB  0x5F,0x71,0x32,0x35,0xA,0x0,0x23,0x66
00038b 6961
00038c 656c
00038d 5f64
00038e 3271      	.DB  0x61,0x69,0x6C,0x65,0x64,0x5F,0x71,0x32
00038f 2d35
000390 633e
000391 5f33
000392 6166      	.DB  0x35,0x2D,0x3E,0x63,0x33,0x5F,0x66,0x61
000393 6c69
000394 000a
000395 303a
000396 3033      	.DB  0x69,0x6C,0xA,0x0,0x3A,0x30,0x33,0x30
000397 3033
000398 3130
000399 3046
00039a 3030      	.DB  0x33,0x30,0x30,0x31,0x46,0x30,0x30,0x30
00039b 4432
00039c 0d39
00039d 000a
00039e 7223      	.DB  0x32,0x44,0x39,0xD,0xA,0x0,0x23,0x72
00039f 7465
0003a0 7972
0003a1 715f
0003a2 3632      	.DB  0x65,0x74,0x72,0x79,0x5F,0x71,0x32,0x36
0003a3 000a
0003a4 6623
0003a5 6961
0003a6 656c      	.DB  0xA,0x0,0x23,0x66,0x61,0x69,0x6C,0x65
0003a7 5f64
0003a8 3271
0003a9 2d36
0003aa 633e      	.DB  0x64,0x5F,0x71,0x32,0x36,0x2D,0x3E,0x63
0003ab 5f33
0003ac 6166
0003ad 6c69
0003ae 000a      	.DB  0x33,0x5F,0x66,0x61,0x69,0x6C,0xA,0x0
0003af 303a
0003b0 3033
0003b1 3033
0003b2 3230      	.DB  0x3A,0x30,0x33,0x30,0x33,0x30,0x30,0x32
0003b3 3031
0003b4 3030
0003b5 4432
0003b6 0d37      	.DB  0x31,0x30,0x30,0x30,0x32,0x44,0x37,0xD
0003b7 000a
0003b8 7223
0003b9 7465
0003ba 7972      	.DB  0xA,0x0,0x23,0x72,0x65,0x74,0x72,0x79
0003bb 715f
0003bc 3732
0003bd 000a
0003be 6623      	.DB  0x5F,0x71,0x32,0x37,0xA,0x0,0x23,0x66
0003bf 6961
0003c0 656c
0003c1 5f64
0003c2 3271      	.DB  0x61,0x69,0x6C,0x65,0x64,0x5F,0x71,0x32
0003c3 2d37
0003c4 633e
0003c5 5f33
0003c6 6166      	.DB  0x37,0x2D,0x3E,0x63,0x33,0x5F,0x66,0x61
0003c7 6c69
0003c8 000a
0003c9 303a
0003ca 3033      	.DB  0x69,0x6C,0xA,0x0,0x3A,0x30,0x33,0x30
0003cb 3033
0003cc 3230
0003cd 3033
0003ce 3030      	.DB  0x33,0x30,0x30,0x32,0x33,0x30,0x30,0x30
0003cf 4432
0003d0 0d35
0003d1 000a
0003d2 7223      	.DB  0x32,0x44,0x35,0xD,0xA,0x0,0x23,0x72
0003d3 7465
0003d4 7972
0003d5 715f
0003d6 3832      	.DB  0x65,0x74,0x72,0x79,0x5F,0x71,0x32,0x38
0003d7 000a
0003d8 6623
0003d9 6961
0003da 656c      	.DB  0xA,0x0,0x23,0x66,0x61,0x69,0x6C,0x65
0003db 5f64
0003dc 3271
0003dd 2d38
0003de 633e      	.DB  0x64,0x5F,0x71,0x32,0x38,0x2D,0x3E,0x63
0003df 5f33
0003e0 6166
0003e1 6c69
0003e2 000a      	.DB  0x33,0x5F,0x66,0x61,0x69,0x6C,0xA,0x0
0003e3 4143
0003e4 4c4c
0003e5 6920
0003e6 736e      	.DB  0x43,0x41,0x4C,0x4C,0x20,0x69,0x6E,0x73
0003e7 7265
0003e8 5f74
0003e9 6d65
0003ea 2833      	.DB  0x65,0x72,0x74,0x5F,0x65,0x6D,0x33,0x28
0003eb 6c25
0003ec 2c64
0003ed 6c25
0003ee 2c64      	.DB  0x25,0x6C,0x64,0x2C,0x25,0x6C,0x64,0x2C
0003ef 3a00
0003f0 3430
0003f1 3330
0003f2 3030      	.DB  0x0,0x3A,0x30,0x34,0x30,0x33,0x30,0x30
0003f3 3730
0003f4 3030
0003f5 3230
0003f6 3046      	.DB  0x30,0x37,0x30,0x30,0x30,0x32,0x46,0x30
0003f7 0a0d
0003f8 2300
0003f9 6572
0003fa 7274      	.DB  0xD,0xA,0x0,0x23,0x72,0x65,0x74,0x72
0003fb 5f79
0003fc 3271
0003fd 0a39
0003fe 2300      	.DB  0x79,0x5F,0x71,0x32,0x39,0xA,0x0,0x23
0003ff 6166
000400 6c69
000401 6465
000402 715f      	.DB  0x66,0x61,0x69,0x6C,0x65,0x64,0x5F,0x71
000403 3932
000404 3e2d
000405 3463
000406 665f      	.DB  0x32,0x39,0x2D,0x3E,0x63,0x34,0x5F,0x66
000407 6961
000408 0a6c
000409 3a00
00040a 3430      	.DB  0x61,0x69,0x6C,0xA,0x0,0x3A,0x30,0x34
00040b 3330
00040c 3030
00040d 3930
00040e 3030      	.DB  0x30,0x33,0x30,0x30,0x30,0x39,0x30,0x30
00040f 3230
000410 4545
000411 0a0d
000412 2300      	.DB  0x30,0x32,0x45,0x45,0xD,0xA,0x0,0x23
000413 6572
000414 7274
000415 5f79
000416 3371      	.DB  0x72,0x65,0x74,0x72,0x79,0x5F,0x71,0x33
000417 0a30
000418 2300
000419 6166
00041a 6c69      	.DB  0x30,0xA,0x0,0x23,0x66,0x61,0x69,0x6C
00041b 6465
00041c 715f
00041d 3033
00041e 3e2d      	.DB  0x65,0x64,0x5F,0x71,0x33,0x30,0x2D,0x3E
00041f 3463
000420 665f
000421 6961
000422 0a6c      	.DB  0x63,0x34,0x5F,0x66,0x61,0x69,0x6C,0xA
000423 3a00
000424 3430
000425 3330
000426 3030      	.DB  0x0,0x3A,0x30,0x34,0x30,0x33,0x30,0x30
000427 4230
000428 3030
000429 3230
00042a 4345      	.DB  0x30,0x42,0x30,0x30,0x30,0x32,0x45,0x43
00042b 0a0d
00042c 2300
00042d 6572
00042e 7274      	.DB  0xD,0xA,0x0,0x23,0x72,0x65,0x74,0x72
00042f 5f79
000430 3371
000431 0a31
000432 2300      	.DB  0x79,0x5F,0x71,0x33,0x31,0xA,0x0,0x23
000433 6166
000434 6c69
000435 6465
000436 715f      	.DB  0x66,0x61,0x69,0x6C,0x65,0x64,0x5F,0x71
000437 3133
000438 3e2d
000439 3463
00043a 665f      	.DB  0x33,0x31,0x2D,0x3E,0x63,0x34,0x5F,0x66
00043b 6961
00043c 0a6c
00043d 3a00
00043e 3430      	.DB  0x61,0x69,0x6C,0xA,0x0,0x3A,0x30,0x34
00043f 3330
000440 3030
000441 3331
000442 3030      	.DB  0x30,0x33,0x30,0x30,0x31,0x33,0x30,0x30
000443 3230
000444 3445
000445 0a0d
000446 2300      	.DB  0x30,0x32,0x45,0x34,0xD,0xA,0x0,0x23
000447 6572
000448 7274
000449 5f79
00044a 3371      	.DB  0x72,0x65,0x74,0x72,0x79,0x5F,0x71,0x33
00044b 0a32
00044c 2300
00044d 6166
00044e 6c69      	.DB  0x32,0xA,0x0,0x23,0x66,0x61,0x69,0x6C
00044f 6465
000450 715f
000451 3233
000452 3e2d      	.DB  0x65,0x64,0x5F,0x71,0x33,0x32,0x2D,0x3E
000453 3463
000454 665f
000455 6961
000456 0a6c      	.DB  0x63,0x34,0x5F,0x66,0x61,0x69,0x6C,0xA
000457 3a00
000458 3430
000459 3330
00045a 3030      	.DB  0x0,0x3A,0x30,0x34,0x30,0x33,0x30,0x30
00045b 3531
00045c 3030
00045d 3230
00045e 3245      	.DB  0x31,0x35,0x30,0x30,0x30,0x32,0x45,0x32
00045f 0a0d
000460 2300
000461 6572
000462 7274      	.DB  0xD,0xA,0x0,0x23,0x72,0x65,0x74,0x72
000463 5f79
000464 3371
000465 0a33
000466 2300      	.DB  0x79,0x5F,0x71,0x33,0x33,0xA,0x0,0x23
000467 6166
000468 6c69
000469 6465
00046a 715f      	.DB  0x66,0x61,0x69,0x6C,0x65,0x64,0x5F,0x71
00046b 3333
00046c 3e2d
00046d 3463
00046e 665f      	.DB  0x33,0x33,0x2D,0x3E,0x63,0x34,0x5F,0x66
00046f 6961
000470 0a6c
000471 3a00
000472 3430      	.DB  0x61,0x69,0x6C,0xA,0x0,0x3A,0x30,0x34
000473 3330
000474 3030
000475 3731
000476 3030      	.DB  0x30,0x33,0x30,0x30,0x31,0x37,0x30,0x30
000477 3230
000478 3045
000479 0a0d
00047a 2300      	.DB  0x30,0x32,0x45,0x30,0xD,0xA,0x0,0x23
00047b 6572
00047c 7274
00047d 5f79
00047e 3371      	.DB  0x72,0x65,0x74,0x72,0x79,0x5F,0x71,0x33
00047f 0a34
000480 2300
000481 6166
000482 6c69      	.DB  0x34,0xA,0x0,0x23,0x66,0x61,0x69,0x6C
000483 6465
000484 715f
000485 3433
000486 3e2d      	.DB  0x65,0x64,0x5F,0x71,0x33,0x34,0x2D,0x3E
000487 3463
000488 665f
000489 6961
00048a 0a6c      	.DB  0x63,0x34,0x5F,0x66,0x61,0x69,0x6C,0xA
00048b 3a00
00048c 3430
00048d 3330
00048e 3030      	.DB  0x0,0x3A,0x30,0x34,0x30,0x33,0x30,0x30
00048f 3931
000490 3030
000491 3230
000492 4544      	.DB  0x31,0x39,0x30,0x30,0x30,0x32,0x44,0x45
000493 0a0d
000494 2300
000495 6572
000496 7274      	.DB  0xD,0xA,0x0,0x23,0x72,0x65,0x74,0x72
000497 5f79
000498 3371
000499 0a35
00049a 2300      	.DB  0x79,0x5F,0x71,0x33,0x35,0xA,0x0,0x23
00049b 6166
00049c 6c69
00049d 6465
00049e 715f      	.DB  0x66,0x61,0x69,0x6C,0x65,0x64,0x5F,0x71
00049f 3533
0004a0 3e2d
0004a1 3463
0004a2 665f      	.DB  0x33,0x35,0x2D,0x3E,0x63,0x34,0x5F,0x66
0004a3 6961
0004a4 0a6c
0004a5 3a00
0004a6 3430      	.DB  0x61,0x69,0x6C,0xA,0x0,0x3A,0x30,0x34
0004a7 3330
0004a8 3030
0004a9 4231
0004aa 3030      	.DB  0x30,0x33,0x30,0x30,0x31,0x42,0x30,0x30
0004ab 3230
0004ac 4344
0004ad 0a0d
0004ae 2300      	.DB  0x30,0x32,0x44,0x43,0xD,0xA,0x0,0x23
0004af 6572
0004b0 7274
0004b1 5f79
0004b2 3371      	.DB  0x72,0x65,0x74,0x72,0x79,0x5F,0x71,0x33
0004b3 0a36
0004b4 2300
0004b5 6166
0004b6 6c69      	.DB  0x36,0xA,0x0,0x23,0x66,0x61,0x69,0x6C
0004b7 6465
0004b8 715f
0004b9 3633
0004ba 3e2d      	.DB  0x65,0x64,0x5F,0x71,0x33,0x36,0x2D,0x3E
0004bb 3463
0004bc 665f
0004bd 6961
0004be 0a6c      	.DB  0x63,0x34,0x5F,0x66,0x61,0x69,0x6C,0xA
0004bf 3a00
0004c0 3430
0004c1 3330
0004c2 3030      	.DB  0x0,0x3A,0x30,0x34,0x30,0x33,0x30,0x30
0004c3 4431
0004c4 3030
0004c5 3230
0004c6 4144      	.DB  0x31,0x44,0x30,0x30,0x30,0x32,0x44,0x41
0004c7 0a0d
0004c8 2300
0004c9 6572
0004ca 7274      	.DB  0xD,0xA,0x0,0x23,0x72,0x65,0x74,0x72
0004cb 5f79
0004cc 3371
0004cd 0a37
0004ce 2300      	.DB  0x79,0x5F,0x71,0x33,0x37,0xA,0x0,0x23
0004cf 6166
0004d0 6c69
0004d1 6465
0004d2 715f      	.DB  0x66,0x61,0x69,0x6C,0x65,0x64,0x5F,0x71
0004d3 3733
0004d4 3e2d
0004d5 3463
0004d6 665f      	.DB  0x33,0x37,0x2D,0x3E,0x63,0x34,0x5F,0x66
0004d7 6961
0004d8 0a6c
0004d9 3a00
0004da 3430      	.DB  0x61,0x69,0x6C,0xA,0x0,0x3A,0x30,0x34
0004db 3330
0004dc 3030
0004dd 4631
0004de 3030      	.DB  0x30,0x33,0x30,0x30,0x31,0x46,0x30,0x30
0004df 3230
0004e0 3844
0004e1 0a0d
0004e2 2300      	.DB  0x30,0x32,0x44,0x38,0xD,0xA,0x0,0x23
0004e3 6572
0004e4 7274
0004e5 5f79
0004e6 3371      	.DB  0x72,0x65,0x74,0x72,0x79,0x5F,0x71,0x33
0004e7 0a38
0004e8 2300
0004e9 6166
0004ea 6c69      	.DB  0x38,0xA,0x0,0x23,0x66,0x61,0x69,0x6C
0004eb 6465
0004ec 715f
0004ed 3833
0004ee 3e2d      	.DB  0x65,0x64,0x5F,0x71,0x33,0x38,0x2D,0x3E
0004ef 3463
0004f0 665f
0004f1 6961
0004f2 0a6c      	.DB  0x63,0x34,0x5F,0x66,0x61,0x69,0x6C,0xA
0004f3 3a00
0004f4 3430
0004f5 3330
0004f6 3030      	.DB  0x0,0x3A,0x30,0x34,0x30,0x33,0x30,0x30
0004f7 3132
0004f8 3030
0004f9 3230
0004fa 3644      	.DB  0x32,0x31,0x30,0x30,0x30,0x32,0x44,0x36
0004fb 0a0d
0004fc 2300
0004fd 6572
0004fe 7274      	.DB  0xD,0xA,0x0,0x23,0x72,0x65,0x74,0x72
0004ff 5f79
000500 3371
000501 0a39
000502 2300      	.DB  0x79,0x5F,0x71,0x33,0x39,0xA,0x0,0x23
000503 6166
000504 6c69
000505 6465
000506 715f      	.DB  0x66,0x61,0x69,0x6C,0x65,0x64,0x5F,0x71
000507 3933
000508 3e2d
000509 3463
00050a 665f      	.DB  0x33,0x39,0x2D,0x3E,0x63,0x34,0x5F,0x66
00050b 6961
00050c 0a6c
00050d 3a00
00050e 3430      	.DB  0x61,0x69,0x6C,0xA,0x0,0x3A,0x30,0x34
00050f 3330
000510 3030
000511 3332
000512 3030      	.DB  0x30,0x33,0x30,0x30,0x32,0x33,0x30,0x30
000513 3230
000514 3444
000515 0a0d
000516 2300      	.DB  0x30,0x32,0x44,0x34,0xD,0xA,0x0,0x23
000517 6572
000518 7274
000519 5f79
00051a 3471      	.DB  0x72,0x65,0x74,0x72,0x79,0x5F,0x71,0x34
00051b 0a30
00051c 2300
00051d 6166
00051e 6c69      	.DB  0x30,0xA,0x0,0x23,0x66,0x61,0x69,0x6C
00051f 6465
000520 715f
000521 3034
000522 3e2d      	.DB  0x65,0x64,0x5F,0x71,0x34,0x30,0x2D,0x3E
000523 3463
000524 665f
000525 6961
000526 0a6c      	.DB  0x63,0x34,0x5F,0x66,0x61,0x69,0x6C,0xA
000527 4300
000528 4c41
000529 204c
00052a 6e69      	.DB  0x0,0x43,0x41,0x4C,0x4C,0x20,0x69,0x6E
00052b 6573
00052c 7472
00052d 655f
00052e 346d      	.DB  0x73,0x65,0x72,0x74,0x5F,0x65,0x6D,0x34
00052f 2528
000530 646c
000531 252c
000532 646c      	.DB  0x28,0x25,0x6C,0x64,0x2C,0x25,0x6C,0x64
000533 002c
000534 303a
000535 3035
000536 3036      	.DB  0x2C,0x0,0x3A,0x30,0x35,0x30,0x36,0x30
000537 3030
000538 3030
000539 2530
00053a 3230      	.DB  0x30,0x30,0x30,0x30,0x30,0x25,0x30,0x32
00053b 2558
00053c 3230
00053d 0d58
00053e 000a      	.DB  0x58,0x25,0x30,0x32,0x58,0xD,0xA,0x0
00053f 7223
000540 7465
000541 7972
000542 715f      	.DB  0x23,0x72,0x65,0x74,0x72,0x79,0x5F,0x71
000543 3134
000544 000a
000545 6623
000546 6961      	.DB  0x34,0x31,0xA,0x0,0x23,0x66,0x61,0x69
000547 656c
000548 5f64
000549 3471
00054a 0a31      	.DB  0x6C,0x65,0x64,0x5F,0x71,0x34,0x31,0xA
00054b 3a00
00054c 3530
00054d 3430
00054e 3030      	.DB  0x0,0x3A,0x30,0x35,0x30,0x34,0x30,0x30
00054f 3130
000550 3030
000551 3130
000552 3546      	.DB  0x30,0x31,0x30,0x30,0x30,0x31,0x46,0x35
000553 0a0d
000554 2300
000555 6572
000556 7274      	.DB  0xD,0xA,0x0,0x23,0x72,0x65,0x74,0x72
000557 5f79
000558 3471
000559 0a32
00055a 2300      	.DB  0x79,0x5F,0x71,0x34,0x32,0xA,0x0,0x23
00055b 6166
00055c 6c69
00055d 6465
00055e 715f      	.DB  0x66,0x61,0x69,0x6C,0x65,0x64,0x5F,0x71
00055f 3234
000560 000a
000561 303a
000562 3035      	.DB  0x34,0x32,0xA,0x0,0x3A,0x30,0x35,0x30
000563 3034
000564 3030
000565 3034
000566 3030      	.DB  0x34,0x30,0x30,0x30,0x34,0x30,0x30,0x30
000567 4631
000568 0d32
000569 000a
00056a 7223      	.DB  0x31,0x46,0x32,0xD,0xA,0x0,0x23,0x72
00056b 7465
00056c 7972
00056d 715f
00056e 3334      	.DB  0x65,0x74,0x72,0x79,0x5F,0x71,0x34,0x33
00056f 000a
000570 6623
000571 6961
000572 656c      	.DB  0xA,0x0,0x23,0x66,0x61,0x69,0x6C,0x65
000573 5f64
000574 3471
000575 2d33
000576 733e      	.DB  0x64,0x5F,0x71,0x34,0x33,0x2D,0x3E,0x73
000577 5f35
000578 6166
000579 6c69
00057a 000a      	.DB  0x35,0x5F,0x66,0x61,0x69,0x6C,0xA,0x0
00057b 303a
00057c 3035
00057d 3034
00057e 3030      	.DB  0x3A,0x30,0x35,0x30,0x34,0x30,0x30,0x30
00057f 3035
000580 3030
000581 4631
000582 0d31      	.DB  0x35,0x30,0x30,0x30,0x31,0x46,0x31,0xD
000583 000a
000584 7223
000585 7465
000586 7972      	.DB  0xA,0x0,0x23,0x72,0x65,0x74,0x72,0x79
000587 715f
000588 3434
000589 000a
00058a 6623      	.DB  0x5F,0x71,0x34,0x34,0xA,0x0,0x23,0x66
00058b 6961
00058c 656c
00058d 5f64
00058e 3471      	.DB  0x61,0x69,0x6C,0x65,0x64,0x5F,0x71,0x34
00058f 2d34
000590 733e
000591 5f35
000592 6166      	.DB  0x34,0x2D,0x3E,0x73,0x35,0x5F,0x66,0x61
000593 6c69
000594 000a
000595 4143
000596 4c4c      	.DB  0x69,0x6C,0xA,0x0,0x43,0x41,0x4C,0x4C
000597 6920
000598 736e
000599 7265
00059a 5f74      	.DB  0x20,0x69,0x6E,0x73,0x65,0x72,0x74,0x5F
00059b 6c73
00059c 7661
00059d 3565
00059e 2528      	.DB  0x73,0x6C,0x61,0x76,0x65,0x35,0x28,0x25
00059f 2c64
0005a0 2500
0005a1 2964
0005a2 0a3b      	.DB  0x64,0x2C,0x0,0x25,0x64,0x29,0x3B,0xA
0005a3 2300
0005a4 5852
0005a5 5f31
0005a6 7562      	.DB  0x0,0x23,0x52,0x58,0x31,0x5F,0x62,0x75
0005a7 6666
0005a8 7265
0005a9 6f5f
0005aa 6576      	.DB  0x66,0x66,0x65,0x72,0x5F,0x6F,0x76,0x65
0005ab 6672
0005ac 6f6c
0005ad 0077      	.DB  0x72,0x66,0x6C,0x6F,0x77,0x0
                 _0x2020060:
Z:\M164A metrics_inserter v1.06\Debug\List\metrics_inserter_uC.asm(1499): warning: .cseg .db misalignment - padding zero byte
0005ae 0001      	.DB  0x1
                 _0x2020000:
0005af 4e2d
0005b0 4e41
0005b1 4900
0005b2 464e      	.DB  0x2D,0x4E,0x41,0x4E,0x0,0x49,0x4E,0x46
Z:\M164A metrics_inserter v1.06\Debug\List\metrics_inserter_uC.asm(1502): warning: .cseg .db misalignment - padding zero byte
0005b3 0000      	.DB  0x0
                 
                 __GLOBAL_INI_TBL:
0005b4 0001      	.DW  0x01
0005b5 02e5      	.DW  __seed_G101
0005b6 0b5c      	.DW  _0x2020060*2
                 
                 _0xFFFFFFFF:
0005b7 0000      	.DW  0
                 
                 #define __GLOBAL_INI_TBL_PRESENT 1
                 
                 __RESET:
0005b8 94f8      	CLI
0005b9 27ee      	CLR  R30
0005ba bbef      	OUT  EECR,R30
                 
                 ;INTERRUPT VECTORS ARE PLACED
                 ;AT THE START OF FLASH
0005bb e0f1      	LDI  R31,1
0005bc bff5      	OUT  MCUCR,R31
0005bd bfe5      	OUT  MCUCR,R30
                 
                 ;CLEAR R2-R14
0005be e08d      	LDI  R24,(14-2)+1
0005bf e0a2      	LDI  R26,2
0005c0 27bb      	CLR  R27
                 __CLEAR_REG:
0005c1 93ed      	ST   X+,R30
0005c2 958a      	DEC  R24
0005c3 f7e9      	BRNE __CLEAR_REG
                 
                 ;CLEAR SRAM
0005c4 e080      	LDI  R24,LOW(__CLEAR_SRAM_SIZE)
0005c5 e094      	LDI  R25,HIGH(__CLEAR_SRAM_SIZE)
0005c6 e0a0      	LDI  R26,LOW(__SRAM_START)
0005c7 e0b1      	LDI  R27,HIGH(__SRAM_START)
                 __CLEAR_SRAM:
0005c8 93ed      	ST   X+,R30
0005c9 9701      	SBIW R24,1
0005ca f7e9      	BRNE __CLEAR_SRAM
                 
                 ;GLOBAL VARIABLES INITIALIZATION
0005cb e6e8      	LDI  R30,LOW(__GLOBAL_INI_TBL*2)
0005cc e0fb      	LDI  R31,HIGH(__GLOBAL_INI_TBL*2)
                 __GLOBAL_INI_NEXT:
0005cd 9185      	LPM  R24,Z+
0005ce 9195      	LPM  R25,Z+
0005cf 9700      	SBIW R24,0
0005d0 f061      	BREQ __GLOBAL_INI_END
0005d1 91a5      	LPM  R26,Z+
0005d2 91b5      	LPM  R27,Z+
0005d3 9005      	LPM  R0,Z+
0005d4 9015      	LPM  R1,Z+
0005d5 01bf      	MOVW R22,R30
0005d6 01f0      	MOVW R30,R0
                 __GLOBAL_INI_LOOP:
0005d7 9005      	LPM  R0,Z+
0005d8 920d      	ST   X+,R0
0005d9 9701      	SBIW R24,1
0005da f7e1      	BRNE __GLOBAL_INI_LOOP
0005db 01fb      	MOVW R30,R22
0005dc cff0      	RJMP __GLOBAL_INI_NEXT
                 __GLOBAL_INI_END:
                 
                 ;GPIOR0 INITIALIZATION
0005dd e0e0      	LDI  R30,__GPIOR0_INIT
0005de bbee      	OUT  GPIOR0,R30
                 
                 ;HARDWARE STACK POINTER INITIALIZATION
0005df efef      	LDI  R30,LOW(__SRAM_END-__HEAP_SIZE)
0005e0 bfed      	OUT  SPL,R30
0005e1 e0e4      	LDI  R30,HIGH(__SRAM_END-__HEAP_SIZE)
0005e2 bfee      	OUT  SPH,R30
                 
                 ;DATA STACK POINTER INITIALIZATION
0005e3 e0c0      	LDI  R28,LOW(__SRAM_START+__DSTACK_SIZE)
0005e4 e0d2      	LDI  R29,HIGH(__SRAM_START+__DSTACK_SIZE)
                 
0005e5 940c 0af5 	JMP  _main
                 
                 	.ESEG
                 	.ORG 0
                 
                 	.DSEG
                 	.ORG 0x200
                 
                 	.CSEG
                 ;#include <mega164a.h>
                 	#ifndef __SLEEP_DEFINED__
                 	#define __SLEEP_DEFINED__
                 	.EQU __se_bit=0x01
                 	.EQU __sm_mask=0x0E
                 	.EQU __sm_powerdown=0x04
                 	.EQU __sm_powersave=0x06
                 	.EQU __sm_standby=0x0C
                 	.EQU __sm_ext_standby=0x0E
                 	.EQU __sm_adc_noise_red=0x02
                 	.SET power_ctrl_reg=smcr
                 	#endif
                 ;#include "defs.h"
                 ;
                 ;void initController()
                 ; 0000 0005 {
                 
                 	.CSEG
                 _initController:
                 ; .FSTART _initController
                 ; 0000 0006     // Crystal Oscillator division factor: 1
                 ; 0000 0007     #pragma optsize-
                 ; 0000 0008     CLKPR=(1<<CLKPCE);
0005e7 e8e0      	LDI  R30,LOW(128)
0005e8 93e0 0061 	STS  97,R30
                 ; 0000 0009     CLKPR=(0<<CLKPCE) | (0<<CLKPS3) | (0<<CLKPS2) | (0<<CLKPS1) | (0<<CLKPS0);
0005ea e0e0      	LDI  R30,LOW(0)
0005eb 93e0 0061 	STS  97,R30
                 ; 0000 000A     #ifdef _OPTIMIZE_SIZE_
                 ; 0000 000B     #pragma optsize+
                 ; 0000 000C     #endif
                 ; 0000 000D 
                 ; 0000 000E     // Input/Output Ports initialization
                 ; 0000 000F     // Port A initialization
                 ; 0000 0010     // Function: Bit7=In Bit6=In Bit5=In Bit4=In Bit3=In Bit2=In Bit1=In Bit0=In
                 ; 0000 0011     DDRA=(0<<DDA7) | (0<<DDA6) | (0<<DDA5) | (0<<DDA4) | (0<<DDA3) | (0<<DDA2) | (0<<DDA1) | (0<<DDA0);
0005ed b9e1      	OUT  0x1,R30
                 ; 0000 0012     // State: Bit7=P Bit6=P Bit5=P Bit4=P Bit3=P Bit2=P Bit1=P Bit0=P
                 ; 0000 0013     PORTA=(1<<PORTA7) | (1<<PORTA6) | (1<<PORTA5) | (1<<PORTA4) | (1<<PORTA3) | (1<<PORTA2) | (1<<PORTA1) | (1<<PORTA0);
0005ee efef      	LDI  R30,LOW(255)
0005ef b9e2      	OUT  0x2,R30
                 ; 0000 0014 
                 ; 0000 0015     // Port B initialization
                 ; 0000 0016     // Function: Bit7=In Bit6=In Bit5=In Bit4=In Bit3=In Bit2=In Bit1=In Bit0=In
                 ; 0000 0017     DDRB=(0<<DDB7) | (0<<DDB6) | (0<<DDB5) | (0<<DDB4) | (0<<DDB3) | (0<<DDB2) | (0<<DDB1) | (0<<DDB0);
0005f0 e0e0      	LDI  R30,LOW(0)
0005f1 b9e4      	OUT  0x4,R30
                 ; 0000 0018     // State: Bit7=P Bit6=P Bit5=P Bit4=P Bit3=P Bit2=P Bit1=P Bit0=P
                 ; 0000 0019     PORTB=(1<<PORTB7) | (1<<PORTB6) | (1<<PORTB5) | (1<<PORTB4) | (1<<PORTB3) | (1<<PORTB2) | (1<<PORTB1) | (1<<PORTB0);
0005f2 efef      	LDI  R30,LOW(255)
0005f3 b9e5      	OUT  0x5,R30
                 ; 0000 001A 
                 ; 0000 001B     // Port C initialization
                 ; 0000 001C     // Function: Bit7=Out Bit6=Out Bit5=Out Bit4=Out Bit3=Out Bit2=Out Bit1=Out Bit0=Out
                 ; 0000 001D     DDRC=(1<<DDC7) | (1<<DDC6) | (1<<DDC5) | (1<<DDC4) | (1<<DDC3) | (1<<DDC2) | (1<<DDC1) | (1<<DDC0);
0005f4 b9e7      	OUT  0x7,R30
                 ; 0000 001E     // State: Bit7=0 Bit6=0 Bit5=0 Bit4=0 Bit3=0 Bit2=0 Bit1=0 Bit0=0
                 ; 0000 001F     PORTC=(0<<PORTC7) | (0<<PORTC6) | (0<<PORTC5) | (0<<PORTC4) | (0<<PORTC3) | (0<<PORTC2) | (0<<PORTC1) | (0<<PORTC0);
0005f5 e0e0      	LDI  R30,LOW(0)
0005f6 b9e8      	OUT  0x8,R30
                 ; 0000 0020 
                 ; 0000 0021     // Port D initialization
                 ; 0000 0022     // Function: Bit7=In Bit6=Out Bit5=In Bit4=Out Bit3=In Bit2=In Bit1=In Bit0=In
                 ; 0000 0023     DDRD=(0<<DDD7) | (1<<DDD6) | (0<<DDD5) | (1<<DDD4) | (0<<DDD3) | (0<<DDD2) | (0<<DDD1) | (0<<DDD0);
0005f7 e5e0      	LDI  R30,LOW(80)
0005f8 b9ea      	OUT  0xA,R30
                 ; 0000 0024     // State: Bit7=T Bit6=0 Bit5=P Bit4=0 Bit3=T Bit2=T Bit1=T Bit0=T
                 ; 0000 0025     PORTD=(0<<PORTD7) | (0<<PORTD6) | (1<<PORTD5) | (0<<PORTD4) | (0<<PORTD3) | (0<<PORTD2) | (0<<PORTD1) | (0<<PORTD0);
0005f9 e2e0      	LDI  R30,LOW(32)
0005fa b9eb      	OUT  0xB,R30
                 ; 0000 0026 
                 ; 0000 0027     // Timer/Counter 0 initialization
                 ; 0000 0028     // Clock source: System Clock
                 ; 0000 0029     // Clock value: 312.500 kHz
                 ; 0000 002A     // Mode: CTC top=OCR0A
                 ; 0000 002B     // OC0A output: Disconnected
                 ; 0000 002C     // OC0B output: Disconnected
                 ; 0000 002D     // Timer Period: 0.4 ms
                 ; 0000 002E     TCCR0A=(0<<COM0A1) | (0<<COM0A0) | (0<<COM0B1) | (0<<COM0B0) | (1<<WGM01) | (0<<WGM00);
0005fb e0e2      	LDI  R30,LOW(2)
0005fc bde4      	OUT  0x24,R30
                 ; 0000 002F     TCCR0B=(0<<WGM02) | (0<<CS02) | (0<<CS01) | (0<<CS00);    //TCCR0B=0b0011;    //to start
0005fd e0e0      	LDI  R30,LOW(0)
0005fe bde5      	OUT  0x25,R30
                 ; 0000 0030     TCNT0=0x00;
0005ff bde6      	OUT  0x26,R30
                 ; 0000 0031     OCR0A=0x7C;
000600 e7ec      	LDI  R30,LOW(124)
000601 bde7      	OUT  0x27,R30
                 ; 0000 0032     OCR0B=0x00;
000602 e0e0      	LDI  R30,LOW(0)
000603 bde8      	OUT  0x28,R30
                 ; 0000 0033 
                 ; 0000 0034     // Timer/Counter 1 initialization
                 ; 0000 0035     // Clock source: System Clock
                 ; 0000 0036     // Clock value: 19.531 kHz
                 ; 0000 0037     // Mode: CTC top=OCR1A
                 ; 0000 0038     // OC1A output: Disconnected
                 ; 0000 0039     // OC1B output: Disconnected
                 ; 0000 003A     // Noise Canceler: Off
                 ; 0000 003B     // Input Capture on Falling Edge
                 ; 0000 003C     // Timer Period: 2.4 s
                 ; 0000 003D     // Timer1 Overflow Interrupt: Off
                 ; 0000 003E     // Input Capture Interrupt: Off
                 ; 0000 003F     // Compare A Match Interrupt: On
                 ; 0000 0040     // Compare B Match Interrupt: Off
                 ; 0000 0041     TCCR1A=(0<<COM1A1) | (0<<COM1A0) | (0<<COM1B1) | (0<<COM1B0) | (0<<WGM11) | (0<<WGM10);
000604 93e0 0080 	STS  128,R30
                 ; 0000 0042     TCCR1B=(0<<ICNC1) | (0<<ICES1) | (0<<WGM13) | (0<<WGM12) | (0<<CS12) | (0<<CS11) | (0<<CS10);    //TCCR1B=0b1101;    ...
000606 93e0 0081 	STS  129,R30
                 ; 0000 0043     TCNT1H=0x00;
000608 93e0 0085 	STS  133,R30
                 ; 0000 0044     TCNT1L=0x00;
00060a 93e0 0084 	STS  132,R30
                 ; 0000 0045     ICR1H=0x00;
00060c 93e0 0087 	STS  135,R30
                 ; 0000 0046     ICR1L=0x00;
00060e 93e0 0086 	STS  134,R30
                 ; 0000 0047     OCR1AH=0xB7;
000610 ebe7      	LDI  R30,LOW(183)
000611 93e0 0089 	STS  137,R30
                 ; 0000 0048     OCR1AL=0x1A;
000613 e1ea      	LDI  R30,LOW(26)
000614 93e0 0088 	STS  136,R30
                 ; 0000 0049     OCR1BH=0x00;
000616 e0e0      	LDI  R30,LOW(0)
000617 93e0 008b 	STS  139,R30
                 ; 0000 004A     OCR1BL=0x00;
000619 93e0 008a 	STS  138,R30
                 ; 0000 004B 
                 ; 0000 004C     // Timer/Counter 2 initialization
                 ; 0000 004D     // Clock source: System Clock
                 ; 0000 004E     // Clock value: 78.125 kHz
                 ; 0000 004F     // Mode: CTC top=OCR2A
                 ; 0000 0050     // OC2A output: Disconnected
                 ; 0000 0051     // OC2B output: Disconnected
                 ; 0000 0052     // Timer Period: 3.2 ms
                 ; 0000 0053     ASSR=(0<<EXCLK) | (0<<AS2);
00061b 93e0 00b6 	STS  182,R30
                 ; 0000 0054     TCCR2A=(0<<COM2A1) | (0<<COM2A0) | (0<<COM2B1) | (0<<COM2B0) | (1<<WGM21) | (0<<WGM20);
00061d e0e2      	LDI  R30,LOW(2)
00061e 93e0 00b0 	STS  176,R30
                 ; 0000 0055     TCCR2B=(0<<WGM22) | (1<<CS22) | (1<<CS21) | (0<<CS20);        //TCCR2B=0b110;    //to start
000620 e0e6      	LDI  R30,LOW(6)
000621 93e0 00b1 	STS  177,R30
                 ; 0000 0056     TCNT2=0x00;
000623 e0e0      	LDI  R30,LOW(0)
000624 93e0 00b2 	STS  178,R30
                 ; 0000 0057     OCR2A=0xF9;
000626 efe9      	LDI  R30,LOW(249)
000627 93e0 00b3 	STS  179,R30
                 ; 0000 0058     OCR2B=0x00;
000629 e0e0      	LDI  R30,LOW(0)
00062a 93e0 00b4 	STS  180,R30
                 ; 0000 0059 
                 ; 0000 005A     // Timer/Counter 0 Interrupt(s) initialization
                 ; 0000 005B     TIMSK0=(0<<OCIE0B) | (1<<OCIE0A) | (0<<TOIE0);
00062c e0e2      	LDI  R30,LOW(2)
00062d 93e0 006e 	STS  110,R30
                 ; 0000 005C 
                 ; 0000 005D     // Timer/Counter 1 Interrupt(s) initialization
                 ; 0000 005E     TIMSK1=(0<<ICIE1) | (0<<OCIE1B) | (1<<OCIE1A) | (0<<TOIE1);
00062f 93e0 006f 	STS  111,R30
                 ; 0000 005F 
                 ; 0000 0060     // Timer/Counter 2 Interrupt(s) initialization
                 ; 0000 0061     TIMSK2=(0<<OCIE2B) | (1<<OCIE2A) | (0<<TOIE2);
000631 93e0 0070 	STS  112,R30
                 ; 0000 0062 
                 ; 0000 0063     // External Interrupt(s) initialization
                 ; 0000 0064     // INT0: Off
                 ; 0000 0065     // INT1: Off
                 ; 0000 0066     // INT2: Off
                 ; 0000 0067     // Interrupt on any change on pins PCINT0-7: Off
                 ; 0000 0068     // Interrupt on any change on pins PCINT8-15: Off
                 ; 0000 0069     // Interrupt on any change on pins PCINT16-23: Off
                 ; 0000 006A     // Interrupt on any change on pins PCINT24-31: On
                 ; 0000 006B     EICRA=(0<<ISC21) | (0<<ISC20) | (0<<ISC11) | (0<<ISC10) | (0<<ISC01) | (0<<ISC00);
000633 e0e0      	LDI  R30,LOW(0)
000634 93e0 0069 	STS  105,R30
                 ; 0000 006C     EIMSK=(0<<INT2) | (0<<INT1) | (0<<INT0);
000636 bbed      	OUT  0x1D,R30
                 ; 0000 006D     PCMSK0=(1<<PCINT7) | (1<<PCINT6) | (1<<PCINT5) | (1<<PCINT4) | (1<<PCINT3) | (1<<PCINT2) | (1<<PCINT1) | (1<<PCINT0) ...
000637 efef      	LDI  R30,LOW(255)
000638 93e0 006b 	STS  107,R30
                 ; 0000 006E     PCICR=(0<<PCIE3) | (0<<PCIE2) | (0<<PCIE1) | (1<<PCIE0);
00063a e0e1      	LDI  R30,LOW(1)
00063b 93e0 0068 	STS  104,R30
                 ; 0000 006F     PCIFR=(0<<PCIF3) | (0<<PCIF2) | (0<<PCIF1) | (1<<PCIF0);
00063d bbeb      	OUT  0x1B,R30
                 ; 0000 0070 
                 ; 0000 0071     // USART0 initialization
                 ; 0000 0072     // Communication Parameters: 8 Data, 1 Stop, No Parity
                 ; 0000 0073     // USART0 Receiver: On
                 ; 0000 0074     // USART0 Transmitter: On
                 ; 0000 0075     // USART0 Mode: Asynchronous
                 ; 0000 0076     // USART0 Baud Rate: 9600
                 ; 0000 0077     UCSR0A=(0<<RXC0) | (0<<TXC0) | (0<<UDRE0) | (0<<FE0) | (0<<DOR0) | (0<<UPE0) | (0<<U2X0) | (0<<MPCM0);
00063e e0e0      	LDI  R30,LOW(0)
00063f 93e0 00c0 	STS  192,R30
                 ; 0000 0078     UCSR0B=(1<<RXCIE0) | (1<<TXCIE0) | (0<<UDRIE0) | (1<<RXEN0) | (1<<TXEN0) | (0<<UCSZ02) | (0<<RXB80) | (0<<TXB80);
000641 ede8      	LDI  R30,LOW(216)
000642 93e0 00c1 	STS  193,R30
                 ; 0000 0079     UCSR0C=(0<<UMSEL01) | (0<<UMSEL00) | (0<<UPM01) | (0<<UPM00) | (0<<USBS0) | (1<<UCSZ01) | (1<<UCSZ00) | (0<<UCPOL0);
000644 e0e6      	LDI  R30,LOW(6)
000645 93e0 00c2 	STS  194,R30
                 ; 0000 007A     UBRR0H=0x00;
000647 e0e0      	LDI  R30,LOW(0)
000648 93e0 00c5 	STS  197,R30
                 ; 0000 007B     UBRR0L=0x81;
00064a e8e1      	LDI  R30,LOW(129)
00064b 93e0 00c4 	STS  196,R30
                 ; 0000 007C 
                 ; 0000 007D     // USART1 initialization
                 ; 0000 007E     // USART1 disabled
                 ; 0000 007F     UCSR0A=(0<<RXC1) | (0<<TXC1) | (0<<UDRE1) | (0<<FE1) | (0<<DOR1) | (0<<UPE1) | (0<<U2X1) | (0<<MPCM1);
00064d e0e0      	LDI  R30,LOW(0)
00064e 93e0 00c0 	STS  192,R30
                 ; 0000 0080     UCSR1B=(1<<RXCIE1) | (1<<TXCIE1) | (0<<UDRIE1) | (1<<RXEN1) | (1<<TXEN1) | (0<<UCSZ12) | (0<<RXB81) | (0<<TXB81);
000650 ede8      	LDI  R30,LOW(216)
000651 93e0 00c9 	STS  201,R30
                 ; 0000 0081     UCSR0C=(0<<UMSEL11) | (0<<UMSEL10) | (0<<UPM11) | (0<<UPM10) | (0<<USBS1) | (1<<UCSZ11) | (1<<UCSZ10) | (0<<UCPOL1);
000653 e0e6      	LDI  R30,LOW(6)
000654 93e0 00c2 	STS  194,R30
                 ; 0000 0082     UBRR1H=0x00;
000656 e0e0      	LDI  R30,LOW(0)
000657 93e0 00cd 	STS  205,R30
                 ; 0000 0083     UBRR1L=0x81;
000659 e8e1      	LDI  R30,LOW(129)
00065a 93e0 00cc 	STS  204,R30
                 ; 0000 0084 
                 ; 0000 0085     // Analog Comparator initialization
                 ; 0000 0086     // Analog Comparator: Off
                 ; 0000 0087     // The Analog Comparator's positive input is
                 ; 0000 0088     // connected to the AIN0 pin
                 ; 0000 0089     // The Analog Comparator's negative input is
                 ; 0000 008A     // connected to the AIN1 pin
                 ; 0000 008B     ACSR=(1<<ACD) | (0<<ACBG) | (0<<ACO) | (0<<ACI) | (0<<ACIE) | (0<<ACIC) | (0<<ACIS1) | (0<<ACIS0);
00065c e8e0      	LDI  R30,LOW(128)
00065d bfe0      	OUT  0x30,R30
                 ; 0000 008C     ADCSRB=(0<<ACME);
00065e e0e0      	LDI  R30,LOW(0)
00065f 93e0 007b 	STS  123,R30
                 ; 0000 008D     // Digital input buffer on AIN0: On
                 ; 0000 008E     // Digital input buffer on AIN1: On
                 ; 0000 008F     DIDR1=(0<<AIN0D) | (0<<AIN1D);
000661 93e0 007f 	STS  127,R30
                 ; 0000 0090 
                 ; 0000 0091     // ADC initialization
                 ; 0000 0092     // ADC disabled
                 ; 0000 0093     ADCSRA=(0<<ADEN) | (0<<ADSC) | (0<<ADATE) | (0<<ADIF) | (0<<ADIE) | (0<<ADPS2) | (0<<ADPS1) | (0<<ADPS0);
000663 93e0 007a 	STS  122,R30
                 ; 0000 0094 
                 ; 0000 0095     // SPI initialization
                 ; 0000 0096     // SPI disabled
                 ; 0000 0097     SPCR=(0<<SPIE) | (0<<SPE) | (0<<DORD) | (0<<MSTR) | (0<<CPOL) | (0<<CPHA) | (0<<SPR1) | (0<<SPR0);
000665 bdec      	OUT  0x2C,R30
                 ; 0000 0098 
                 ; 0000 0099     // TWI initialization
                 ; 0000 009A     // TWI disabled
                 ; 0000 009B     TWCR=(0<<TWEA) | (0<<TWSTA) | (0<<TWSTO) | (0<<TWEN) | (0<<TWIE);
000666 93e0 00bc 	STS  188,R30
                 ; 0000 009C 
                 ; 0000 009D     // Watchdog Timer initialization
                 ; 0000 009E     // Watchdog Timer Prescaler: OSC/8k
                 ; 0000 009F     // Watchdog timeout action: Reset
                 ; 0000 00A0     // Watchdog period: 8k/OSC=8192/128000=64ms
                 ; 0000 00A1     #pragma optsize-
                 ; 0000 00A2     #asm("wdr")
000668 95a8      	wdr
                 ; 0000 00A3     WDTCSR|=(1<<WDCE) | (1<<WDE);
000669 91e0 0060 	LDS  R30,96
00066b 61e8      	ORI  R30,LOW(0x18)
00066c 93e0 0060 	STS  96,R30
                 ; 0000 00A4     WDTCSR=(0<<WDIF) | (0<<WDIE) | (0<<WDP3) | (0<<WDCE) | (1<<WDE) | (0<<WDP2) | (1<<WDP1) | (0<<WDP0);
00066e e0ea      	LDI  R30,LOW(10)
00066f 93e0 0060 	STS  96,R30
                 ; 0000 00A5     #ifdef _OPTIMIZE_SIZE_
                 ; 0000 00A6     #pragma optsize+
                 ; 0000 00A7     #endif
                 ; 0000 00A8 }
000671 9508      	RET
                 ; .FEND
                 ;/*******************************************************
                 ;This program was created by the CodeWizardAVR V3.37
                 ;Automatic Program Generator
                 ; Copyright 1998-2019 Pavel Haiduc, HP InfoTech s.r.l.
                 ;http://www.hpinfotech.com
                 ;
                 ;Project : metrics_inserter_uC
                 ;Version : 1.06
                 ;Date    : 16.03.2023
                 ;Author  : popag93
                 ;Company :
                 ;Comments: queries the meter, computes mean on 5s from 5 values
                 ;          and sends MySQL queries on USART0 to insert metrics;
                 ;          queries the custom Modbus slave to actuate the relays
                 ;          according to the switches and get analog inputs
                 ;
                 ;Chip type               : ATmega164A
                 ;Program type            : Application
                 ;AVR Core Clock frequency: 20.000000 MHz
                 ;Memory model            : Small
                 ;External RAM size       : 0
                 ;Data Stack size         : 256
                 ;*******************************************************/
                 ;
                 ;#include <mega164a.h>
                 	#ifndef __SLEEP_DEFINED__
                 	#endif
                 ;
                 ;#include <stdio.h>
                 ;#include <stdlib.h>
                 ;#include <string.h>
                 ;#include <delay.h>
                 ;#include "defs.h"
                 ;void initController();
                 ;
                 ;//static const char hextable[] = {[0...255]=-1, ['0']=0,1,2,3,4,5,6,7,8,9, ['A']=10,11,12,13,14,15, ['a']=10,11,12,13,14 ...
                 ;flash const char hextable[] = {
                 ;    -1,-1,-1,-1,-1,-1,-1,-1,-1,-1,-1,-1,-1,-1,-1,-1,-1,-1,-1,-1,-1,-1,-1,
                 ;    -1,-1,-1,-1,-1,-1,-1,-1,-1,-1,-1,-1,-1,-1,-1,-1,-1,-1,-1,-1,-1,-1,-1,
                 ;    -1,-1, 0,1,2,3,4,5,6,7,8,9,-1,-1,-1,-1,-1,-1,-1,10,11,12,13,14,15,-1,
                 ;    -1,-1,-1,-1,-1,-1,-1,-1,-1,-1,-1,-1,-1,-1,-1,-1,-1,-1,-1,-1,-1,-1,-1,
                 ;    -1,-1,10,11,12,13,14,15,-1,-1,-1,-1,-1,-1,-1,-1,-1,-1,-1,-1,-1,-1,-1,
                 ;    -1,-1,-1,-1,-1,-1,-1,-1,-1,-1,-1,-1,-1,-1,-1,-1,-1,-1,-1,-1,-1,-1,-1,
                 ;    -1,-1,-1,-1,-1,-1,-1,-1,-1,-1,-1,-1,-1,-1,-1,-1,-1,-1,-1,-1,-1,-1,-1,
                 ;    -1,-1,-1,-1,-1,-1,-1,-1,-1,-1,-1,-1,-1,-1,-1,-1,-1,-1,-1,-1,-1,-1,-1,
                 ;    -1,-1,-1,-1,-1,-1,-1,-1,-1,-1,-1,-1,-1,-1,-1,-1,-1,-1,-1,-1,-1,-1,-1,
                 ;    -1,-1,-1,-1,-1,-1,-1,-1,-1,-1,-1,-1,-1,-1,-1,-1,-1,-1,-1,-1,-1,-1,-1,
                 ;    -1,-1,-1,-1,-1,-1,-1,-1,-1,-1,-1,-1,-1,-1,-1,-1,-1,-1,-1,-1,-1,-1,-1
                 ;};
                 ;void sscanf_2hhx(char *s, char *d)    //call this instead of sscanf(s, "%2hhx", d), which is not implemented
                 ; 0001 0031 {
                 
                 	.CSEG
                 _sscanf_2hhx:
                 ; .FSTART _sscanf_2hhx
                 ; 0001 0032     *d=0;
000672 93ba      	ST   -Y,R27
000673 93aa      	ST   -Y,R26
                 ;	*s -> Y+2
                 ;	*d -> Y+0
000674 81a8      	LD   R26,Y
000675 81b9      	LDD  R27,Y+1
000676 e0e0      	LDI  R30,LOW(0)
000677 93ec      	ST   X,R30
                 ; 0001 0033     if(hextable[s[0]]!=-1)
000678 81aa      	LDD  R26,Y+2
000679 81bb      	LDD  R27,Y+2+1
00067a 91ec      	LD   R30,X
00067b e0f0      	LDI  R31,0
00067c 58e4      	SUBI R30,LOW(-_hextable*2)
00067d 4fff      	SBCI R31,HIGH(-_hextable*2)
00067e 91a4      	LPM  R26,Z
00067f efef      	LDI  R30,LOW(255)
000680 e0b0      	LDI  R27,0
000681 efff      	SER  R31
000682 17ea      	CP   R30,R26
000683 07fb      	CPC  R31,R27
000684 f069      	BREQ _0x20003
                 ; 0001 0034         *d = hextable[s[0]]<<4;
000685 81aa      	LDD  R26,Y+2
000686 81bb      	LDD  R27,Y+2+1
000687 91ec      	LD   R30,X
000688 e0f0      	LDI  R31,0
000689 58e4      	SUBI R30,LOW(-_hextable*2)
00068a 4fff      	SBCI R31,HIGH(-_hextable*2)
00068b 91e4      	LPM  R30,Z
00068c 95e2      	SWAP R30
00068d 7fe0      	ANDI R30,0xF0
00068e 81a8      	LD   R26,Y
00068f 81b9      	LDD  R27,Y+1
000690 93ec      	ST   X,R30
                 ; 0001 0035     else
000691 c001      	RJMP _0x20004
                 _0x20003:
                 ; 0001 0036         return;
000692 c01b      	RJMP _0x20A000A
                 ; 0001 0037     if(hextable[s[1]]!=-1)
                 _0x20004:
000693 81ea      	LDD  R30,Y+2
000694 81fb      	LDD  R31,Y+2+1
000695 81e1      	LDD  R30,Z+1
000696 e0f0      	LDI  R31,0
000697 58e4      	SUBI R30,LOW(-_hextable*2)
000698 4fff      	SBCI R31,HIGH(-_hextable*2)
000699 91a4      	LPM  R26,Z
00069a efef      	LDI  R30,LOW(255)
00069b e0b0      	LDI  R27,0
00069c efff      	SER  R31
00069d 17ea      	CP   R30,R26
00069e 07fb      	CPC  R31,R27
00069f f071      	BREQ _0x20005
                 ; 0001 0038         *d += hextable[s[1]];
0006a0 81a8      	LD   R26,Y
0006a1 81b9      	LDD  R27,Y+1
0006a2 2e0a      	MOV  R0,R26
0006a3 91ac      	LD   R26,X
0006a4 81ea      	LDD  R30,Y+2
0006a5 81fb      	LDD  R31,Y+2+1
0006a6 81e1      	LDD  R30,Z+1
0006a7 e0f0      	LDI  R31,0
0006a8 58e4      	SUBI R30,LOW(-_hextable*2)
0006a9 4fff      	SBCI R31,HIGH(-_hextable*2)
0006aa 91e4      	LPM  R30,Z
0006ab 0fea      	ADD  R30,R26
0006ac 2da0      	MOV  R26,R0
0006ad 93ec      	ST   X,R30
                 ; 0001 0039 
                 ; 0001 003A     return;
                 _0x20005:
                 _0x20A000A:
0006ae 9624      	ADIW R28,4
0006af 9508      	RET
                 ; 0001 003B }
                 ; .FEND
                 ;
                 ;//*************************************************************************************************
                 ;//*********** BEGIN SERIAL STUFF (interrupt-driven, generated by Code Wizard) *********************
                 ;//*************************************************************************************************
                 ;#define getchar0 getchar
                 ;#define putchar0 putchar
                 ;
                 ;#ifndef RXB8
                 ;#define RXB8 1
                 ;#endif
                 ;
                 ;#ifndef TXB8
                 ;#define TXB8 0
                 ;#endif
                 ;
                 ;#ifndef UPE
                 ;#define UPE 2
                 ;#endif
                 ;
                 ;#ifndef DOR
                 ;#define DOR 3
                 ;#endif
                 ;
                 ;#ifndef FE
                 ;#define FE 4
                 ;#endif
                 ;
                 ;#ifndef UDRE
                 ;#define UDRE 5
                 ;#endif
                 ;
                 ;#ifndef RXC
                 ;#define RXC 7
                 ;#endif
                 ;
                 ;#define FRAMING_ERROR (1<<FE)
                 ;#define PARITY_ERROR (1<<UPE)
                 ;#define DATA_OVERRUN (1<<DOR)
                 ;#define DATA_REGISTER_EMPTY (1<<UDRE)
                 ;#define RX_COMPLETE (1<<RXC)
                 ;
                 ;// USART0 Receiver buffer
                 ;#define RX_BUFFER_SIZE0 8
                 ;char rx_buffer0[RX_BUFFER_SIZE0];        //este un FIFO circular, wr_index pt intrari, rd_index pt iesiri
                 ;
                 ;#if RX_BUFFER_SIZE0 <= 256
                 ;unsigned char rx_wr_index0,rx_rd_index0,rx_counter0;    //rx_counter0 counts unread data in the buffer
                 ;#else
                 ;unsigned int rx_wr_index0,rx_rd_index0,rx_counter0;
                 ;#endif
                 ;
                 ;// This flag is set on USART0 Receiver buffer overflow
                 ;bit rx_buffer_overflow0;
                 ;
                 ;// USART0 Receiver interrupt service routine
                 ;interrupt [USART0_RXC] void usart0_rx_isr(void)        //keyword "interrupt[<IV_index>]" ...<functie>
                 ; 0001 0074 {
                 _usart0_rx_isr:
                 ; .FSTART _usart0_rx_isr
0006b0 93ea      	ST   -Y,R30
0006b1 93fa      	ST   -Y,R31
0006b2 b7ef      	IN   R30,SREG
0006b3 93ea      	ST   -Y,R30
                 ; 0001 0075     char status,data;
                 ; 0001 0076     status=UCSR0A;
0006b4 931a      	ST   -Y,R17
0006b5 930a      	ST   -Y,R16
                 ;	status -> R17
                 ;	data -> R16
0006b6 9110 00c0 	LDS  R17,192
                 ; 0001 0077     data=UDR0;    //dupa se va sterge RXCF de hard
0006b8 9100 00c6 	LDS  R16,198
                 ; 0001 0078     if ((status & (FRAMING_ERROR | PARITY_ERROR | DATA_OVERRUN))==0)  //if(!(status & (FRAMING_ERROR | PARITY_ERROR | DA ...
0006ba 2fe1      	MOV  R30,R17
0006bb 71ec      	ANDI R30,LOW(0x1C)
0006bc f481      	BRNE _0x20006
                 ; 0001 0079        {
                 ; 0001 007A        rx_buffer0[rx_wr_index0++]=data;
0006bd 2de4      	MOV  R30,R4
0006be 9443      	INC  R4
0006bf e0f0      	LDI  R31,0
0006c0 50e0      	SUBI R30,LOW(-_rx_buffer0)
0006c1 4ffe      	SBCI R31,HIGH(-_rx_buffer0)
0006c2 8300      	ST   Z,R16
                 ; 0001 007B     #if RX_BUFFER_SIZE0 == 256
                 ; 0001 007C        // special case for receiver buffer size=256
                 ; 0001 007D        if (++rx_counter0 == 0) rx_buffer_overflow0=1;
                 ; 0001 007E     #else
                 ; 0001 007F        if (rx_wr_index0 == RX_BUFFER_SIZE0) rx_wr_index0=0;
0006c3 e0e8      	LDI  R30,LOW(8)
0006c4 15e4      	CP   R30,R4
0006c5 f409      	BRNE _0x20007
0006c6 2444      	CLR  R4
                 ; 0001 0080        if (++rx_counter0 == RX_BUFFER_SIZE0)
                 _0x20007:
0006c7 9463      	INC  R6
0006c8 e0e8      	LDI  R30,LOW(8)
0006c9 15e6      	CP   R30,R6
0006ca f411      	BRNE _0x20008
                 ; 0001 0081           {
                 ; 0001 0082           rx_counter0=0;
0006cb 2466      	CLR  R6
                 ; 0001 0083           rx_buffer_overflow0=1;
0006cc 9af0      	SBI  0x1E,0
                 ; 0001 0084           }
                 ; 0001 0085     #endif
                 ; 0001 0086        }
                 _0x20008:
                 ; 0001 0087 }
                 _0x20006:
0006cd c052      	RJMP _0x201E0
                 ; .FEND
                 ;
                 ;#ifndef _DEBUG_TERMINAL_IO_
                 ;// Get a character from the USART0 Receiver buffer
                 ;#define _ALTERNATE_GETCHAR_
                 ;#pragma used+
                 ;char getchar0(void)
                 ; 0001 008E {
                 ; 0001 008F     char data;
                 ; 0001 0090     while (rx_counter0==0);        //while no new data is present, wait
                 ;	data -> R17
                 ; 0001 0091     data=rx_buffer0[rx_rd_index0++];
                 ; 0001 0092     #if RX_BUFFER_SIZE0 != 256
                 ; 0001 0093     if (rx_rd_index0 == RX_BUFFER_SIZE0) rx_rd_index0=0;
                 ; 0001 0094     #endif
                 ; 0001 0095     #asm("cli")
                 ; 0001 0096     --rx_counter0;    //oprit intreruperi deoarece operatie atomica ???
                 ; 0001 0097     #asm("sei")
                 ; 0001 0098     return data;
                 ; 0001 0099 }
                 ;#pragma used-
                 ;#endif
                 ;
                 ;// USART0 Transmitter buffer
                 ;#define TX_BUFFER_SIZE0 24
                 ;char tx_buffer0[TX_BUFFER_SIZE0];    //este un FIFO circular, wr_index pt intrari, rd pt iesiri catre TransmitBuffer
                 ;
                 ;#if TX_BUFFER_SIZE0 <= 256
                 ;unsigned char tx_wr_index0,tx_rd_index0,tx_counter0;
                 ;#else
                 ;unsigned int tx_wr_index0,tx_rd_index0,tx_counter0;
                 ;#endif
                 ;
                 ;// USART0 Transmitter interrupt service routine
                 ;interrupt [USART0_TXC] void usart0_tx_isr(void)
                 ; 0001 00A9 {
                 _usart0_tx_isr:
                 ; .FSTART _usart0_tx_isr
0006ce 93ea      	ST   -Y,R30
0006cf 93fa      	ST   -Y,R31
0006d0 b7ef      	IN   R30,SREG
0006d1 93ea      	ST   -Y,R30
                 ; 0001 00AA     if (tx_counter0)        //else, the buffer is empty, do nothing, starting the ISR clears TXCF
0006d2 2077      	TST  R7
0006d3 f069      	BREQ _0x2000F
                 ; 0001 00AB     {
                 ; 0001 00AC        --tx_counter0;
0006d4 947a      	DEC  R7
                 ; 0001 00AD        UDR0=tx_buffer0[tx_rd_index0++];
0006d5 2de8      	MOV  R30,R8
0006d6 9483      	INC  R8
0006d7 e0f0      	LDI  R31,0
0006d8 5fe8      	SUBI R30,LOW(-_tx_buffer0)
0006d9 4ffd      	SBCI R31,HIGH(-_tx_buffer0)
0006da 81e0      	LD   R30,Z
0006db 93e0 00c6 	STS  198,R30
                 ; 0001 00AE     #if TX_BUFFER_SIZE0 != 256
                 ; 0001 00AF        if (tx_rd_index0 == TX_BUFFER_SIZE0) tx_rd_index0=0;
0006dd e1e8      	LDI  R30,LOW(24)
0006de 15e8      	CP   R30,R8
0006df f409      	BRNE _0x20010
0006e0 2488      	CLR  R8
                 ; 0001 00B0     #endif
                 ; 0001 00B1     }
                 _0x20010:
                 ; 0001 00B2 }
                 _0x2000F:
0006e1 91e9      	LD   R30,Y+
0006e2 bfef      	OUT  SREG,R30
0006e3 91f9      	LD   R31,Y+
0006e4 91e9      	LD   R30,Y+
0006e5 9518      	RETI
                 ; .FEND
                 ;
                 ;#ifndef _DEBUG_TERMINAL_IO_
                 ;// Write a character to the USART0 Transmitter buffer
                 ;#define _ALTERNATE_PUTCHAR_
                 ;#pragma used+
                 ;void putchar0(char c)
                 ; 0001 00B9 {
                 _putchar:
                 ; .FSTART _putchar
                 ; 0001 00BA     while (tx_counter0 == TX_BUFFER_SIZE0);        //? si daca BUFFER_SIZE0==256 ??
0006e6 93aa      	ST   -Y,R26
                 ;	c -> Y+0
                 _0x20011:
0006e7 e1e8      	LDI  R30,LOW(24)
0006e8 15e7      	CP   R30,R7
0006e9 f3e9      	BREQ _0x20011
                 ; 0001 00BB     #asm("cli")
0006ea 94f8      	cli
                 ; 0001 00BC     if (tx_counter0 || ((UCSR0A & DATA_REGISTER_EMPTY)==0))      //a doua conditie este pt a nu fi in cazul in care doar ...
0006eb 2077      	TST  R7
0006ec f421      	BRNE _0x20015
0006ed 91e0 00c0 	LDS  R30,192
0006ef 72e0      	ANDI R30,LOW(0x20)
0006f0 f469      	BRNE _0x20014
                 _0x20015:
                 ; 0001 00BD        {
                 ; 0001 00BE        tx_buffer0[tx_wr_index0++]=c;
0006f1 2de5      	MOV  R30,R5
0006f2 9453      	INC  R5
0006f3 e0f0      	LDI  R31,0
0006f4 5fe8      	SUBI R30,LOW(-_tx_buffer0)
0006f5 4ffd      	SBCI R31,HIGH(-_tx_buffer0)
0006f6 81a8      	LD   R26,Y
0006f7 83a0      	STD  Z+0,R26
                 ; 0001 00BF     #if TX_BUFFER_SIZE0 != 256
                 ; 0001 00C0        if (tx_wr_index0 == TX_BUFFER_SIZE0) tx_wr_index0=0;
0006f8 e1e8      	LDI  R30,LOW(24)
0006f9 15e5      	CP   R30,R5
0006fa f409      	BRNE _0x20017
0006fb 2455      	CLR  R5
                 ; 0001 00C1     #endif
                 ; 0001 00C2        ++tx_counter0;
                 _0x20017:
0006fc 9473      	INC  R7
                 ; 0001 00C3        }
                 ; 0001 00C4     else        //inseamna ca TXC=0 (sters de ISR) si UDRE=1
0006fd c003      	RJMP _0x20018
                 _0x20014:
                 ; 0001 00C5        UDR0=c;
0006fe 81e8      	LD   R30,Y
0006ff 93e0 00c6 	STS  198,R30
                 ; 0001 00C6     #asm("sei")
                 _0x20018:
000701 9478      	sei
000702 c06e      	RJMP _0x20A0009
                 ; 0001 00C7 }
                 ; .FEND
                 ;#pragma used-
                 ;#endif
                 ;//*************************************************************************************************
                 ;//******************** END SERIAL STUFF (USART0), BEGIN USART1  ***********************************
                 ;//*************************************************************************************************
                 ;
                 ;// USART1 Receiver buffer
                 ;#define RX_BUFFER_SIZE1 32
                 ;char rx_buffer1[RX_BUFFER_SIZE1];        //wr_index pt intrari, rd_index pt iesiri
                 ;
                 ;#if RX_BUFFER_SIZE1 <= 256
                 ;unsigned char rx_wr_index1,rx_rd_index1,rx_counter1;    //rx_counter counts unread data in the buffer
                 ;#else
                 ;unsigned int rx_wr_index1,rx_rd_index1,rx_counter1;
                 ;#endif
                 ;
                 ;// This flag is set on USART1 Receiver buffer overflow
                 ;bit rx_buffer_overflow1;
                 ;
                 ;// USART1 Receiver interrupt service routine
                 ;interrupt [USART1_RXC] void usart1_rx_isr(void)        //keyword "interrupt[<IV_index>]" ...<functie>
                 ; 0001 00DD {
                 _usart1_rx_isr:
                 ; .FSTART _usart1_rx_isr
000703 93ea      	ST   -Y,R30
000704 93fa      	ST   -Y,R31
000705 b7ef      	IN   R30,SREG
000706 93ea      	ST   -Y,R30
                 ; 0001 00DE     char status,data;
                 ; 0001 00DF     status=UCSR1A;
000707 931a      	ST   -Y,R17
000708 930a      	ST   -Y,R16
                 ;	status -> R17
                 ;	data -> R16
000709 9110 00c8 	LDS  R17,200
                 ; 0001 00E0     data=UDR1;    //dupa se va sterge RXCF de hard
00070b 9100 00ce 	LDS  R16,206
                 ; 0001 00E1     if ((status & (FRAMING_ERROR | PARITY_ERROR | DATA_OVERRUN))==0)  //if(!(status & (FRAMING_ERROR | PARITY_ERROR | DA ...
00070d 2fe1      	MOV  R30,R17
00070e 71ec      	ANDI R30,LOW(0x1C)
00070f f481      	BRNE _0x20019
                 ; 0001 00E2     {
                 ; 0001 00E3         rx_buffer1[rx_wr_index1++]=data;
000710 2dea      	MOV  R30,R10
000711 94a3      	INC  R10
000712 e0f0      	LDI  R31,0
000713 5ee0      	SUBI R30,LOW(-_rx_buffer1)
000714 4ffd      	SBCI R31,HIGH(-_rx_buffer1)
000715 8300      	ST   Z,R16
                 ; 0001 00E4     #if RX_BUFFER_SIZE1 == 256
                 ; 0001 00E5         // special case for receiver buffer size=256
                 ; 0001 00E6         if (++rx_counter1 == 0) rx_buffer_overflow1=1;
                 ; 0001 00E7     #else
                 ; 0001 00E8         if (rx_wr_index1 == RX_BUFFER_SIZE1) rx_wr_index1=0;
000716 e2e0      	LDI  R30,LOW(32)
000717 15ea      	CP   R30,R10
000718 f409      	BRNE _0x2001A
000719 24aa      	CLR  R10
                 ; 0001 00E9         if (++rx_counter1 == RX_BUFFER_SIZE1)
                 _0x2001A:
00071a 94c3      	INC  R12
00071b e2e0      	LDI  R30,LOW(32)
00071c 15ec      	CP   R30,R12
00071d f411      	BRNE _0x2001B
                 ; 0001 00EA         {
                 ; 0001 00EB             rx_counter1=0;
00071e 24cc      	CLR  R12
                 ; 0001 00EC             rx_buffer_overflow1=1;
00071f 9af1      	SBI  0x1E,1
                 ; 0001 00ED         }
                 ; 0001 00EE     #endif
                 ; 0001 00EF     }
                 _0x2001B:
                 ; 0001 00F0 }
                 _0x20019:
                 _0x201E0:
000720 9109      	LD   R16,Y+
000721 9119      	LD   R17,Y+
000722 91e9      	LD   R30,Y+
000723 bfef      	OUT  SREG,R30
000724 91f9      	LD   R31,Y+
000725 91e9      	LD   R30,Y+
000726 9518      	RETI
                 ; .FEND
                 ;
                 ;#pragma used+
                 ;char getchar1(void)
                 ; 0001 00F4 {
                 _getchar1:
                 ; .FSTART _getchar1
                 ; 0001 00F5     char data;
                 ; 0001 00F6     while (rx_counter1==0);        //while no new data is present, wait
000727 931a      	ST   -Y,R17
                 ;	data -> R17
                 _0x2001E:
000728 20cc      	TST  R12
000729 f3f1      	BREQ _0x2001E
                 ; 0001 00F7     data=rx_buffer1[rx_rd_index1++];
00072a 2de9      	MOV  R30,R9
00072b 9493      	INC  R9
00072c e0f0      	LDI  R31,0
00072d 5ee0      	SUBI R30,LOW(-_rx_buffer1)
00072e 4ffd      	SBCI R31,HIGH(-_rx_buffer1)
00072f 8110      	LD   R17,Z
                 ; 0001 00F8     #if RX_BUFFER_SIZE1 != 256
                 ; 0001 00F9     if (rx_rd_index1 == RX_BUFFER_SIZE1) rx_rd_index1=0;
000730 e2e0      	LDI  R30,LOW(32)
000731 15e9      	CP   R30,R9
000732 f409      	BRNE _0x20021
000733 2499      	CLR  R9
                 ; 0001 00FA     #endif
                 ; 0001 00FB     #asm("cli")
                 _0x20021:
000734 94f8      	cli
                 ; 0001 00FC     --rx_counter1;    //oprit intreruperi deoarece operatie atomica ???
000735 94ca      	DEC  R12
                 ; 0001 00FD     #asm("sei")
000736 9478      	sei
                 ; 0001 00FE     return data;
000737 2fe1      	MOV  R30,R17
000738 9119      	LD   R17,Y+
000739 9508      	RET
                 ; 0001 00FF }
                 ; .FEND
                 ;#pragma used-
                 ;
                 ;// USART1 Transmitter buffer
                 ;#define TX_BUFFER_SIZE1 24
                 ;char tx_buffer1[TX_BUFFER_SIZE1];    //wr_index pt intrari, rd pt iesiri catre TransmitBuffer
                 ;
                 ;#if TX_BUFFER_SIZE1 <= 256
                 ;unsigned char tx_wr_index1,tx_rd_index1,tx_counter1;
                 ;#else
                 ;unsigned int tx_wr_index1,tx_rd_index1,tx_counter1;
                 ;#endif
                 ;
                 ;// USART1 Transmitter interrupt service routine
                 ;interrupt [USART1_TXC] void usart1_tx_isr(void)
                 ; 0001 010E {
                 _usart1_tx_isr:
                 ; .FSTART _usart1_tx_isr
00073a 93ea      	ST   -Y,R30
00073b 93fa      	ST   -Y,R31
00073c b7ef      	IN   R30,SREG
00073d 93ea      	ST   -Y,R30
                 ; 0001 010F     if (tx_counter1)        //else, the buffer is empty, do nothing, starting the ISR clears TXCF
00073e 20dd      	TST  R13
00073f f071      	BREQ _0x20022
                 ; 0001 0110     {
                 ; 0001 0111        --tx_counter1;
000740 94da      	DEC  R13
                 ; 0001 0112        UDR1=tx_buffer1[tx_rd_index1++];
000741 2dee      	MOV  R30,R14
000742 94e3      	INC  R14
000743 e0f0      	LDI  R31,0
000744 5ce0      	SUBI R30,LOW(-_tx_buffer1)
000745 4ffd      	SBCI R31,HIGH(-_tx_buffer1)
000746 81e0      	LD   R30,Z
000747 93e0 00ce 	STS  206,R30
                 ; 0001 0113     #if TX_BUFFER_SIZE1 != 256
                 ; 0001 0114        if (tx_rd_index1 == TX_BUFFER_SIZE1) tx_rd_index1=0;
000749 e1e8      	LDI  R30,LOW(24)
00074a 15ee      	CP   R30,R14
00074b f409      	BRNE _0x20023
00074c 24ee      	CLR  R14
                 ; 0001 0115     #endif
                 ; 0001 0116     }
                 _0x20023:
                 ; 0001 0117     else
00074d c002      	RJMP _0x20024
                 _0x20022:
                 ; 0001 0118     {
                 ; 0001 0119         transceiver_datadir=0;
00074e 985c      	CBI  0xB,4
                 ; 0001 011A         LED1=0;
00074f 985e      	CBI  0xB,6
                 ; 0001 011B     }
                 _0x20024:
                 ; 0001 011C }
000750 91e9      	LD   R30,Y+
000751 bfef      	OUT  SREG,R30
000752 91f9      	LD   R31,Y+
000753 91e9      	LD   R30,Y+
000754 9518      	RETI
                 ; .FEND
                 ;
                 ;#pragma used+
                 ;void putchar1(char c)
                 ; 0001 0120 {
                 _putchar1:
                 ; .FSTART _putchar1
                 ; 0001 0121     while (tx_counter1 == TX_BUFFER_SIZE1);        //? si daca BUFFER_SIZE1==256 ??
000755 93aa      	ST   -Y,R26
                 ;	c -> Y+0
                 _0x20029:
000756 e1e8      	LDI  R30,LOW(24)
000757 15ed      	CP   R30,R13
000758 f3e9      	BREQ _0x20029
                 ; 0001 0122     #asm("cli")
000759 94f8      	cli
                 ; 0001 0123     if (tx_counter1 || ((UCSR1A & DATA_REGISTER_EMPTY)==0))      //a doua conditie este pt a nu fi in cazul in care doar ...
00075a 20dd      	TST  R13
00075b f421      	BRNE _0x2002D
00075c 91e0 00c8 	LDS  R30,200
00075e 72e0      	ANDI R30,LOW(0x20)
00075f f469      	BRNE _0x2002C
                 _0x2002D:
                 ; 0001 0124     {
                 ; 0001 0125        tx_buffer1[tx_wr_index1++]=c;
000760 2deb      	MOV  R30,R11
000761 94b3      	INC  R11
000762 e0f0      	LDI  R31,0
000763 5ce0      	SUBI R30,LOW(-_tx_buffer1)
000764 4ffd      	SBCI R31,HIGH(-_tx_buffer1)
000765 81a8      	LD   R26,Y
000766 83a0      	STD  Z+0,R26
                 ; 0001 0126     #if TX_BUFFER_SIZE1 != 256
                 ; 0001 0127        if (tx_wr_index1 == TX_BUFFER_SIZE1) tx_wr_index1=0;
000767 e1e8      	LDI  R30,LOW(24)
000768 15eb      	CP   R30,R11
000769 f409      	BRNE _0x2002F
00076a 24bb      	CLR  R11
                 ; 0001 0128     #endif
                 ; 0001 0129        ++tx_counter1;
                 _0x2002F:
00076b 94d3      	INC  R13
                 ; 0001 012A     }
                 ; 0001 012B     else        //inseamna ca TXC=0 (sters de ISR) si UDRE=1
00076c c003      	RJMP _0x20030
                 _0x2002C:
                 ; 0001 012C        UDR1=c;
00076d 81e8      	LD   R30,Y
00076e 93e0 00ce 	STS  206,R30
                 ; 0001 012D     #asm("sei")
                 _0x20030:
000770 9478      	sei
                 _0x20A0009:
                 ; 0001 012E }
000771 9621      	ADIW R28,1
000772 9508      	RET
                 ; .FEND
                 ;#pragma used-
                 ;//*************************************************************************************************
                 ;//************************* END SERIAL STUFF (USART1) *********************************************
                 ;//*************************************************************************************************
                 ;
                 ;volatile unsigned char pinA;    //stable, decided relay states
                 ;struct DMED121{
                 ;    // long int in CVAVR C Compiler is int32_t, int is int16_t
                 ;    unsigned long int I;
                 ;    unsigned long int P;
                 ;    unsigned long int Q;
                 ;    unsigned long int V;
                 ;};
                 ;struct DMED301{
                 ;    unsigned long int I1;    //current
                 ;    unsigned long int I2;
                 ;    unsigned long int I3;
                 ;    unsigned long int P1;    //active power
                 ;    unsigned long int P2;
                 ;    unsigned long int P3;
                 ;    unsigned long int Q1;    //reactive power
                 ;    unsigned long int Q2;
                 ;    unsigned long int Q3;
                 ;    unsigned long int S1;    //apparent power
                 ;    unsigned long int S2;
                 ;    unsigned long int S3;
                 ;};
                 ;struct Slave05{
                 ;    unsigned int powcon;
                 ;    unsigned int ain4;
                 ;    unsigned int ain5;
                 ;};
                 ;
                 ;#define SW_OCR0 124
                 ;volatile unsigned char time0;    //time0 sw timer - 125 steps; hw timer 125 steps, 64 prescaler -> 64/20000*125*125=50ms
                 ;inline void start_timer0()
                 ; 0001 0153 {
                 ; 0001 0154     time0=0;
                 ; 0001 0155     TCNT0=0;
                 ; 0001 0156     TCCR0B=0b0011;
                 ; 0001 0157 }
                 ;inline void stop_timer0()
                 ; 0001 0159 {
                 ; 0001 015A     TCCR0B=0;
                 ; 0001 015B }
                 ;// Timer 0 output compare A interrupt service routine
                 ;interrupt [TIM0_COMPA] void timer0_compa_isr(void)
                 ; 0001 015E {
                 _timer0_compa_isr:
                 ; .FSTART _timer0_compa_isr
000773 93aa      	ST   -Y,R26
000774 93ea      	ST   -Y,R30
000775 b7ef      	IN   R30,SREG
000776 93ea      	ST   -Y,R30
                 ; 0001 015F     if(time0<SW_OCR0)
000777 91a0 0259 	LDS  R26,_time0
000779 37ac      	CPI  R26,LOW(0x7C)
00077a f430      	BRSH _0x20033
                 ; 0001 0160         time0++;
00077b 91e0 0259 	LDS  R30,_time0
00077d 5fef      	SUBI R30,-LOW(1)
00077e 93e0 0259 	STS  _time0,R30
                 ; 0001 0161     else
000780 c002      	RJMP _0x20034
                 _0x20033:
                 ; 0001 0162         TCCR0B=0;
000781 e0e0      	LDI  R30,LOW(0)
000782 bde5      	OUT  0x25,R30
                 ; 0001 0163 }
                 _0x20034:
000783 91e9      	LD   R30,Y+
000784 bfef      	OUT  SREG,R30
000785 91e9      	LD   R30,Y+
000786 91a9      	LD   R26,Y+
000787 9518      	RETI
                 ; .FEND
                 ;
                 ;inline void start_timer1()
                 ; 0001 0166 {
                 ; 0001 0167     TCNT1H=0;
                 ; 0001 0168     TCNT1L=0;
                 ; 0001 0169     TCCR1B=0b1101;
                 ; 0001 016A }
                 ;inline void stop_timer1()
                 ; 0001 016C {
                 ; 0001 016D     TCCR1B=0;
                 ; 0001 016E }
                 ;// Timer1 output compare A interrupt service routine
                 ;interrupt [TIM1_COMPA] void timer1_compa_isr(void)
                 ; 0001 0171 {
                 _timer1_compa_isr:
                 ; .FSTART _timer1_compa_isr
000788 93ea      	ST   -Y,R30
                 ; 0001 0172     TCCR1B=0x00;    //stop timer
000789 e0e0      	LDI  R30,LOW(0)
00078a 93e0 0081 	STS  129,R30
                 ; 0001 0173 }
00078c 91e9      	LD   R30,Y+
00078d 9518      	RETI
                 ; .FEND
                 ;
                 ;volatile unsigned char time2=0;    //time2 sw timer - 10 steps; hw timer 250 steps, 256 prescaler -> 256/20000*250*10=32 ...
                 ;interrupt [TIM2_COMPA] void timer2_compa_isr(void)
                 ; 0001 0177 {
                 _timer2_compa_isr:
                 ; .FSTART _timer2_compa_isr
00078e 93aa      	ST   -Y,R26
00078f 93ea      	ST   -Y,R30
000790 b7ef      	IN   R30,SREG
000791 93ea      	ST   -Y,R30
                 ; 0001 0178     if(time2++ >=9)
000792 91a0 025a 	LDS  R26,_time2
000794 5faf      	SUBI R26,-LOW(1)
000795 93a0 025a 	STS  _time2,R26
000797 50a1      	SUBI R26,LOW(1)
000798 30a9      	CPI  R26,LOW(0x9)
000799 f030      	BRLO _0x20037
                 ; 0001 0179     {
                 ; 0001 017A         TCCR2B=0;
00079a e0e0      	LDI  R30,LOW(0)
00079b 93e0 00b1 	STS  177,R30
                 ; 0001 017B         pinA=PINA;
00079d b1e0      	IN   R30,0x0
00079e 93e0 0258 	STS  _pinA,R30
                 ; 0001 017C     }
                 ; 0001 017D }
                 _0x20037:
0007a0 91e9      	LD   R30,Y+
0007a1 bfef      	OUT  SREG,R30
0007a2 91e9      	LD   R30,Y+
0007a3 91a9      	LD   R26,Y+
0007a4 9518      	RETI
                 ; .FEND
                 ;
                 ;interrupt [PC_INT0] void pin_change_isr0(void)
                 ; 0001 0180 {
                 _pin_change_isr0:
                 ; .FSTART _pin_change_isr0
0007a5 93ea      	ST   -Y,R30
                 ; 0001 0181     TCCR2B=0b110;
0007a6 e0e6      	LDI  R30,LOW(6)
0007a7 93e0 00b1 	STS  177,R30
                 ; 0001 0182     time2=0;
0007a9 e0e0      	LDI  R30,LOW(0)
0007aa 93e0 025a 	STS  _time2,R30
                 ; 0001 0183 }
0007ac 91e9      	LD   R30,Y+
0007ad 9518      	RETI
                 ; .FEND
                 ;
                 ;
                 ;// convention:  msg - Modbus request;    rsp - Modbus response
                 ;unsigned char cr=0, *ct;
                 ;char msg[40], errmsg[24];
                 ;//struct DMED121 c1;                //measurement set for energymeter 1
                 ;void senderr(flash const char *error)
                 ; 0001 018B {
                 _senderr:
                 ; .FSTART _senderr
                 ; 0001 018C     strcpyf(errmsg,error);
0007ae 93ba      	ST   -Y,R27
0007af 93aa      	ST   -Y,R26
                 ;	*error -> Y+0
0007b0 e8e6      	LDI  R30,LOW(_errmsg)
0007b1 e0f2      	LDI  R31,HIGH(_errmsg)
0007b2 93fa      	ST   -Y,R31
0007b3 93ea      	ST   -Y,R30
0007b4 81aa      	LDD  R26,Y+2
0007b5 81bb      	LDD  R27,Y+2+1
0007b6 940e 1cf2 	CALL _strcpyf
                 ; 0001 018D     for(ct=errmsg; *ct; ct++)
0007b8 e8e6      	LDI  R30,LOW(_errmsg)
0007b9 e0f2      	LDI  R31,HIGH(_errmsg)
0007ba 93e0 025c 	STS  _ct,R30
0007bc 93f0 025d 	STS  _ct+1,R31
                 _0x20039:
0007be 91a0 025c 	LDS  R26,_ct
0007c0 91b0 025d 	LDS  R27,_ct+1
0007c2 91ec      	LD   R30,X
0007c3 30e0      	CPI  R30,0
0007c4 f051      	BREQ _0x2003A
                 ; 0001 018E         putchar0(*ct);
0007c5 91ac      	LD   R26,X
0007c6 df1f      	RCALL _putchar
0007c7 e5ac      	LDI  R26,LOW(_ct)
0007c8 e0b2      	LDI  R27,HIGH(_ct)
0007c9 91ed      	LD   R30,X+
0007ca 91fd      	LD   R31,X+
0007cb 9631      	ADIW R30,1
0007cc 93fe      	ST   -X,R31
0007cd 93ee      	ST   -X,R30
0007ce cfef      	RJMP _0x20039
                 _0x2003A:
                 ; 0001 018F return;
0007cf 9622      	ADIW R28,2
0007d0 9508      	RET
                 ; 0001 0190 }
                 ; .FEND
                 ;void sendmsg()
                 ; 0001 0192 {
                 _sendmsg:
                 ; .FSTART _sendmsg
                 ; 0001 0193     transceiver_datadir=1;
0007d1 9a5c      	SBI  0xB,4
                 ; 0001 0194     LED1=1;
0007d2 9a5e      	SBI  0xB,6
                 ; 0001 0195     for(ct=msg; *ct; ct++)
0007d3 e5ee      	LDI  R30,LOW(_msg)
0007d4 e0f2      	LDI  R31,HIGH(_msg)
0007d5 93e0 025c 	STS  _ct,R30
0007d7 93f0 025d 	STS  _ct+1,R31
                 _0x20040:
0007d9 91a0 025c 	LDS  R26,_ct
0007db 91b0 025d 	LDS  R27,_ct+1
0007dd 91ec      	LD   R30,X
0007de 30e0      	CPI  R30,0
0007df f051      	BREQ _0x20041
                 ; 0001 0196     {
                 ; 0001 0197         putchar1(*ct);
0007e0 91ac      	LD   R26,X
0007e1 df73      	RCALL _putchar1
                 ; 0001 0198         //putchar0(*ct);    //uncomment for debug
                 ; 0001 0199     }
0007e2 e5ac      	LDI  R26,LOW(_ct)
0007e3 e0b2      	LDI  R27,HIGH(_ct)
0007e4 91ed      	LD   R30,X+
0007e5 91fd      	LD   R31,X+
0007e6 9631      	ADIW R30,1
0007e7 93fe      	ST   -X,R31
0007e8 93ee      	ST   -X,R30
0007e9 cfef      	RJMP _0x20040
                 _0x20041:
                 ; 0001 019A     return;
0007ea 9508      	RET
                 ; 0001 019B }
                 ; .FEND
                 ;void sendqry()    //make it inline if there's enough program memory
                 ; 0001 019D {
                 _sendqry:
                 ; .FSTART _sendqry
                 ; 0001 019E     for(ct=msg; *ct; ct++)
0007eb e5ee      	LDI  R30,LOW(_msg)
0007ec e0f2      	LDI  R31,HIGH(_msg)
0007ed 93e0 025c 	STS  _ct,R30
0007ef 93f0 025d 	STS  _ct+1,R31
                 _0x20043:
0007f1 91a0 025c 	LDS  R26,_ct
0007f3 91b0 025d 	LDS  R27,_ct+1
0007f5 91ec      	LD   R30,X
0007f6 30e0      	CPI  R30,0
0007f7 f051      	BREQ _0x20044
                 ; 0001 019F         putchar0(*ct);
0007f8 91ac      	LD   R26,X
0007f9 deec      	RCALL _putchar
0007fa e5ac      	LDI  R26,LOW(_ct)
0007fb e0b2      	LDI  R27,HIGH(_ct)
0007fc 91ed      	LD   R30,X+
0007fd 91fd      	LD   R31,X+
0007fe 9631      	ADIW R30,1
0007ff 93fe      	ST   -X,R31
000800 93ee      	ST   -X,R30
000801 cfef      	RJMP _0x20043
                 _0x20044:
                 ; 0001 01A0 return;
000802 9508      	RET
                 ; 0001 01A1 }
                 ; .FEND
                 ;
                 ;char rsp[64], Nrsp;        //Nrsp - rsp[] after last element index (==length)
                 ;unsigned char LRC, i=0;    //LRC - longitudinal checksum <=> checksum8 2's complement
                 ;unsigned long int val;
                 ;char ask_listen_validate03(const unsigned char addr)
                 ; 0001 01A7 {
                 _ask_listen_validate03:
                 ; .FSTART _ask_listen_validate03
                 ; 0001 01A8     char *rsp0;    //local variable for rsp
                 ; 0001 01A9 
                 ; 0001 01AA     delay_ms(3);
000803 93aa      	ST   -Y,R26
000804 931a      	ST   -Y,R17
000805 930a      	ST   -Y,R16
                 ;	addr -> Y+2
                 ;	*rsp0 -> R16,R17
000806 e0a3      	LDI  R26,LOW(3)
000807 e0b0      	LDI  R27,0
000808 940e 1d6d 	CALL _delay_ms
                 ; 0001 01AB     start_timer0();
00080a e0e0      	LDI  R30,LOW(0)
00080b 93e0 0259 	STS  _time0,R30
00080d bde6      	OUT  0x26,R30
00080e e0e3      	LDI  R30,LOW(3)
00080f bde5      	OUT  0x25,R30
                 ; 0001 01AC     sendmsg();
000810 dfc0      	RCALL _sendmsg
                 ; 0001 01AD 
                 ; 0001 01AE 
                 ; 0001 01AF     while(!rx_counter1)    //wait first char, timeout time0
                 _0x20045:
000811 20cc      	TST  R12
000812 f451      	BRNE _0x20047
                 ; 0001 01B0         if(time0 == SW_OCR0)
000813 91a0 0259 	LDS  R26,_time0
000815 37ac      	CPI  R26,LOW(0x7C)
000816 f429      	BRNE _0x20048
                 ; 0001 01B1         {
                 ; 0001 01B2             senderr("#fail1");
                +
000817 e7ae     +LDI R26 , LOW ( 2 * _0x20000 + ( 0 ) )
000818 e0b1     +LDI R27 , HIGH ( 2 * _0x20000 + ( 0 ) )
                 	__POINTW2FN _0x20000,0
000819 df94      	RCALL _senderr
                 ; 0001 01B3             return 1;
00081a e0e1      	LDI  R30,LOW(1)
00081b c12d      	RJMP _0x20A0008
                 ; 0001 01B4         }
                 ; 0001 01B5     cr=getchar1();
                 _0x20048:
00081c cff4      	RJMP _0x20045
                 _0x20047:
00081d df09      	RCALL _getchar1
00081e 93e0 025b 	STS  _cr,R30
                 ; 0001 01B6     //putchar0(cr);    //uncomment for debug
                 ; 0001 01B7     *rsp=cr;
000820 93e0 029e 	STS  _rsp,R30
                 ; 0001 01B8     Nrsp=1;
000822 e0e1      	LDI  R30,LOW(1)
000823 93e0 02de 	STS  _Nrsp,R30
                 ; 0001 01B9     while(cr!='\n')        //like Linux canonical serial com + timeout
                 _0x20049:
000825 91a0 025b 	LDS  R26,_cr
000827 30aa      	CPI  R26,LOW(0xA)
000828 f0d9      	BREQ _0x2004B
                 ; 0001 01BA     {
                 ; 0001 01BB         if(time0 == SW_OCR0)
000829 91a0 0259 	LDS  R26,_time0
00082b 37ac      	CPI  R26,LOW(0x7C)
00082c f429      	BRNE _0x2004C
                 ; 0001 01BC         {
                 ; 0001 01BD             senderr("#fail2");
                +
00082d e8a5     +LDI R26 , LOW ( 2 * _0x20000 + ( 7 ) )
00082e e0b1     +LDI R27 , HIGH ( 2 * _0x20000 + ( 7 ) )
                 	__POINTW2FN _0x20000,7
00082f df7e      	RCALL _senderr
                 ; 0001 01BE             return 1;
000830 e0e1      	LDI  R30,LOW(1)
000831 c117      	RJMP _0x20A0008
                 ; 0001 01BF         }
                 ; 0001 01C0         if(rx_counter1)
                 _0x2004C:
000832 20cc      	TST  R12
000833 f079      	BREQ _0x2004D
                 ; 0001 01C1         {
                 ; 0001 01C2             cr=getchar1();
000834 def2      	RCALL _getchar1
000835 93e0 025b 	STS  _cr,R30
                 ; 0001 01C3             //putchar0(cr);    //uncomment for debug
                 ; 0001 01C4             rsp[Nrsp++]=cr;
000837 91e0 02de 	LDS  R30,_Nrsp
000839 5fef      	SUBI R30,-LOW(1)
00083a 93e0 02de 	STS  _Nrsp,R30
00083c 50e1      	SUBI R30,LOW(1)
00083d e0f0      	LDI  R31,0
00083e 56e2      	SUBI R30,LOW(-_rsp)
00083f 4ffd      	SBCI R31,HIGH(-_rsp)
000840 91a0 025b 	LDS  R26,_cr
000842 83a0      	STD  Z+0,R26
                 ; 0001 01C5         }
                 ; 0001 01C6     }
                 _0x2004D:
000843 cfe1      	RJMP _0x20049
                 _0x2004B:
                 ; 0001 01C7     rsp[Nrsp++]='\0';
000844 91e0 02de 	LDS  R30,_Nrsp
000846 5fef      	SUBI R30,-LOW(1)
000847 93e0 02de 	STS  _Nrsp,R30
000849 50e1      	SUBI R30,LOW(1)
00084a e0f0      	LDI  R31,0
00084b 56e2      	SUBI R30,LOW(-_rsp)
00084c 4ffd      	SBCI R31,HIGH(-_rsp)
00084d e0a0      	LDI  R26,LOW(0)
00084e 83a0      	STD  Z+0,R26
                 ; 0001 01C8 
                 ; 0001 01C9     while(rx_counter1)    getchar1();    //empty rx1 buffer
                 _0x2004E:
00084f 20cc      	TST  R12
000850 f011      	BREQ _0x20050
000851 ded5      	RCALL _getchar1
000852 cffc      	RJMP _0x2004E
                 _0x20050:
                 ; 0001 01CA TCCR0B=0;
000853 e0e0      	LDI  R30,LOW(0)
000854 bde5      	OUT  0x25,R30
                 ; 0001 01CB     #asm("wdr");
000855 95a8      	wdr
                 ; 0001 01CC 
                 ; 0001 01CD 
                 ; 0001 01CE     for(i=0;  Nrsp-i>19 && rsp[i]!=':';  i++);    //ignore leading noise
000856 e0e0      	LDI  R30,LOW(0)
000857 93e0 02e0 	STS  _i,R30
                 _0x20052:
000859 91a0 02de 	LDS  R26,_Nrsp
00085b 27bb      	CLR  R27
00085c 91e0 02e0 	LDS  R30,_i
00085e e0f0      	LDI  R31,0
00085f 1bae      	SUB  R26,R30
000860 0bbf      	SBC  R27,R31
000861 9754      	SBIW R26,20
000862 f044      	BRLT _0x20054
000863 91e0 02e0 	LDS  R30,_i
000865 e0f0      	LDI  R31,0
000866 56e2      	SUBI R30,LOW(-_rsp)
000867 4ffd      	SBCI R31,HIGH(-_rsp)
000868 81a0      	LD   R26,Z
000869 33aa      	CPI  R26,LOW(0x3A)
00086a f409      	BRNE _0x20055
                 _0x20054:
00086b c006      	RJMP _0x20053
                 _0x20055:
00086c 91e0 02e0 	LDS  R30,_i
00086e 5fef      	SUBI R30,-LOW(1)
00086f 93e0 02e0 	STS  _i,R30
000871 cfe7      	RJMP _0x20052
                 _0x20053:
                 ; 0001 01CF     if(Nrsp-i != 20)                              //without leading noise, 20B response expected (including '\0', begins ...
000872 91a0 02de 	LDS  R26,_Nrsp
000874 27bb      	CLR  R27
000875 91e0 02e0 	LDS  R30,_i
000877 e0f0      	LDI  R31,0
000878 1bae      	SUB  R26,R30
000879 0bbf      	SBC  R27,R31
00087a 9754      	SBIW R26,20
00087b f029      	BREQ _0x20056
                 ; 0001 01D0     {
                 ; 0001 01D1         senderr("#fail3");
                +
00087c e8ac     +LDI R26 , LOW ( 2 * _0x20000 + ( 14 ) )
00087d e0b1     +LDI R27 , HIGH ( 2 * _0x20000 + ( 14 ) )
                 	__POINTW2FN _0x20000,14
00087e df2f      	RCALL _senderr
                 ; 0001 01D2         return 1;
00087f e0e1      	LDI  R30,LOW(1)
000880 c0c8      	RJMP _0x20A0008
                 ; 0001 01D3     }
                 ; 0001 01D4     rsp0=rsp+i;
                 _0x20056:
000881 91e0 02e0 	LDS  R30,_i
000883 e0f0      	LDI  R31,0
000884 56e2      	SUBI R30,LOW(-_rsp)
000885 4ffd      	SBCI R31,HIGH(-_rsp)
000886 018f      	MOVW R16,R30
                 ; 0001 01D5 
                 ; 0001 01D6     switch(addr)
000887 81ea      	LDD  R30,Y+2
000888 e0f0      	LDI  R31,0
                 ; 0001 01D7     {
                 ; 0001 01D8     case 1:
000889 30e1      	CPI  R30,LOW(0x1)
00088a e0a0      	LDI  R26,HIGH(0x1)
00088b 07fa      	CPC  R31,R26
00088c f489      	BRNE _0x2005A
                 ; 0001 01D9         if(strncmpf(rsp0,":01",3))
00088d 931a      	ST   -Y,R17
00088e 930a      	ST   -Y,R16
                +
00088f e9e3     +LDI R30 , LOW ( 2 * _0x20000 + ( 21 ) )
000890 e0f1     +LDI R31 , HIGH ( 2 * _0x20000 + ( 21 ) )
                 	__POINTW1FN _0x20000,21
000891 93fa      	ST   -Y,R31
000892 93ea      	ST   -Y,R30
000893 e0a3      	LDI  R26,LOW(3)
000894 940e 1d31 	CALL _strncmpf
000896 30e0      	CPI  R30,0
000897 f029      	BREQ _0x2005B
                 ; 0001 01DA         {
                 ; 0001 01DB             senderr("#fail4");
                +
000898 e9a7     +LDI R26 , LOW ( 2 * _0x20000 + ( 25 ) )
000899 e0b1     +LDI R27 , HIGH ( 2 * _0x20000 + ( 25 ) )
                 	__POINTW2FN _0x20000,25
00089a df13      	RCALL _senderr
                 ; 0001 01DC             return 1;
00089b e0e1      	LDI  R30,LOW(1)
00089c c0ac      	RJMP _0x20A0008
                 ; 0001 01DD         }
                 ; 0001 01DE         break;
                 _0x2005B:
00089d c041      	RJMP _0x20059
                 ; 0001 01DF     case 2:
                 _0x2005A:
00089e 30e2      	CPI  R30,LOW(0x2)
00089f e0a0      	LDI  R26,HIGH(0x2)
0008a0 07fa      	CPC  R31,R26
0008a1 f489      	BRNE _0x2005C
                 ; 0001 01E0         if(strncmpf(rsp0,":02",3))
0008a2 931a      	ST   -Y,R17
0008a3 930a      	ST   -Y,R16
                +
0008a4 e9ee     +LDI R30 , LOW ( 2 * _0x20000 + ( 32 ) )
0008a5 e0f1     +LDI R31 , HIGH ( 2 * _0x20000 + ( 32 ) )
                 	__POINTW1FN _0x20000,32
0008a6 93fa      	ST   -Y,R31
0008a7 93ea      	ST   -Y,R30
0008a8 e0a3      	LDI  R26,LOW(3)
0008a9 940e 1d31 	CALL _strncmpf
0008ab 30e0      	CPI  R30,0
0008ac f029      	BREQ _0x2005D
                 ; 0001 01E1         {
                 ; 0001 01E2             senderr("#fail4");
                +
0008ad e9a7     +LDI R26 , LOW ( 2 * _0x20000 + ( 25 ) )
0008ae e0b1     +LDI R27 , HIGH ( 2 * _0x20000 + ( 25 ) )
                 	__POINTW2FN _0x20000,25
0008af defe      	RCALL _senderr
                 ; 0001 01E3             return 1;
0008b0 e0e1      	LDI  R30,LOW(1)
0008b1 c097      	RJMP _0x20A0008
                 ; 0001 01E4         }
                 ; 0001 01E5         break;
                 _0x2005D:
0008b2 c02c      	RJMP _0x20059
                 ; 0001 01E6     case 3:
                 _0x2005C:
0008b3 30e3      	CPI  R30,LOW(0x3)
0008b4 e0a0      	LDI  R26,HIGH(0x3)
0008b5 07fa      	CPC  R31,R26
0008b6 f489      	BRNE _0x2005E
                 ; 0001 01E7         if(strncmpf(rsp0,":03",3))
0008b7 931a      	ST   -Y,R17
0008b8 930a      	ST   -Y,R16
                +
0008b9 eae2     +LDI R30 , LOW ( 2 * _0x20000 + ( 36 ) )
0008ba e0f1     +LDI R31 , HIGH ( 2 * _0x20000 + ( 36 ) )
                 	__POINTW1FN _0x20000,36
0008bb 93fa      	ST   -Y,R31
0008bc 93ea      	ST   -Y,R30
0008bd e0a3      	LDI  R26,LOW(3)
0008be 940e 1d31 	CALL _strncmpf
0008c0 30e0      	CPI  R30,0
0008c1 f029      	BREQ _0x2005F
                 ; 0001 01E8         {
                 ; 0001 01E9             senderr("#fail4");
                +
0008c2 e9a7     +LDI R26 , LOW ( 2 * _0x20000 + ( 25 ) )
0008c3 e0b1     +LDI R27 , HIGH ( 2 * _0x20000 + ( 25 ) )
                 	__POINTW2FN _0x20000,25
0008c4 dee9      	RCALL _senderr
                 ; 0001 01EA             return 1;
0008c5 e0e1      	LDI  R30,LOW(1)
0008c6 c082      	RJMP _0x20A0008
                 ; 0001 01EB         }
                 ; 0001 01EC         break;
                 _0x2005F:
0008c7 c017      	RJMP _0x20059
                 ; 0001 01ED     case 4:
                 _0x2005E:
0008c8 30e4      	CPI  R30,LOW(0x4)
0008c9 e0a0      	LDI  R26,HIGH(0x4)
0008ca 07fa      	CPC  R31,R26
0008cb f489      	BRNE _0x20062
                 ; 0001 01EE         if(strncmpf(rsp0,":04",3))
0008cc 931a      	ST   -Y,R17
0008cd 930a      	ST   -Y,R16
                +
0008ce eae6     +LDI R30 , LOW ( 2 * _0x20000 + ( 40 ) )
0008cf e0f1     +LDI R31 , HIGH ( 2 * _0x20000 + ( 40 ) )
                 	__POINTW1FN _0x20000,40
0008d0 93fa      	ST   -Y,R31
0008d1 93ea      	ST   -Y,R30
0008d2 e0a3      	LDI  R26,LOW(3)
0008d3 940e 1d31 	CALL _strncmpf
0008d5 30e0      	CPI  R30,0
0008d6 f029      	BREQ _0x20061
                 ; 0001 01EF         {
                 ; 0001 01F0             senderr("#fail4");
                +
0008d7 e9a7     +LDI R26 , LOW ( 2 * _0x20000 + ( 25 ) )
0008d8 e0b1     +LDI R27 , HIGH ( 2 * _0x20000 + ( 25 ) )
                 	__POINTW2FN _0x20000,25
0008d9 ded4      	RCALL _senderr
                 ; 0001 01F1             return 1;
0008da e0e1      	LDI  R30,LOW(1)
0008db c06d      	RJMP _0x20A0008
                 ; 0001 01F2         }
                 ; 0001 01F3         break;
                 _0x20061:
0008dc c002      	RJMP _0x20059
                 ; 0001 01F4     default:
                 _0x20062:
                 ; 0001 01F5         return 1;
0008dd e0e1      	LDI  R30,LOW(1)
0008de c06a      	RJMP _0x20A0008
                 ; 0001 01F6     }
                 _0x20059:
                 ; 0001 01F7     LRC = -addr;
0008df 81ea      	LDD  R30,Y+2
0008e0 95e1      	NEG  R30
0008e1 93e0 02df 	STS  _LRC,R30
                 ; 0001 01F8 
                 ; 0001 01F9     if(strncmpf(rsp0+3, "0304", 4))
0008e3 01f8      	MOVW R30,R16
0008e4 9633      	ADIW R30,3
0008e5 93fa      	ST   -Y,R31
0008e6 93ea      	ST   -Y,R30
                +
0008e7 eaea     +LDI R30 , LOW ( 2 * _0x20000 + ( 44 ) )
0008e8 e0f1     +LDI R31 , HIGH ( 2 * _0x20000 + ( 44 ) )
                 	__POINTW1FN _0x20000,44
0008e9 93fa      	ST   -Y,R31
0008ea 93ea      	ST   -Y,R30
0008eb e0a4      	LDI  R26,LOW(4)
0008ec 940e 1d31 	CALL _strncmpf
0008ee 30e0      	CPI  R30,0
0008ef f011      	BREQ _0x20063
                 ; 0001 01FA         return 1;
0008f0 e0e1      	LDI  R30,LOW(1)
0008f1 c057      	RJMP _0x20A0008
                 ; 0001 01FB     LRC -= 7;
                 _0x20063:
0008f2 91e0 02df 	LDS  R30,_LRC
0008f4 50e7      	SUBI R30,LOW(7)
0008f5 93e0 02df 	STS  _LRC,R30
                 ; 0001 01FC 
                 ; 0001 01FD     sscanf(rsp0+7,"%8lx",&val);
0008f7 01f8      	MOVW R30,R16
0008f8 9637      	ADIW R30,7
0008f9 93fa      	ST   -Y,R31
0008fa 93ea      	ST   -Y,R30
                +
0008fb eaef     +LDI R30 , LOW ( 2 * _0x20000 + ( 49 ) )
0008fc e0f1     +LDI R31 , HIGH ( 2 * _0x20000 + ( 49 ) )
                 	__POINTW1FN _0x20000,49
0008fd 93fa      	ST   -Y,R31
0008fe 93ea      	ST   -Y,R30
0008ff eee1      	LDI  R30,LOW(_val)
000900 e0f2      	LDI  R31,HIGH(_val)
000901 2766      	CLR  R22
000902 2777      	CLR  R23
000903 940e 1e0b 	CALL __PUTPARD1
000905 e084      	LDI  R24,4
000906 940e 1caf 	CALL _sscanf
000908 9628      	ADIW R28,8
                 ; 0001 01FE     LRC -= (val>>24) + (val>>16) + (val>>8) + val;
000909 91a0 02e1 	LDS  R26,_val
00090b 91b0 02e2 	LDS  R27,_val+1
00090d 9180 02e3 	LDS  R24,_val+2
00090f 9190 02e4 	LDS  R25,_val+3
000911 e1e8      	LDI  R30,LOW(24)
000912 940e 1d88 	CALL __LSRD12
000914 2fae      	MOV  R26,R30
000915 91e0 02e1 	LDS  R30,_val
000917 91f0 02e2 	LDS  R31,_val+1
000919 9160 02e3 	LDS  R22,_val+2
00091b 9170 02e4 	LDS  R23,_val+3
00091d 940e 1d94 	CALL __LSRD16
00091f 0fea      	ADD  R30,R26
000920 2e1e      	MOV  R1,R30
000921 91a0 02e1 	LDS  R26,_val
000923 91b0 02e2 	LDS  R27,_val+1
000925 9180 02e3 	LDS  R24,_val+2
000927 9190 02e4 	LDS  R25,_val+3
000929 e0e8      	LDI  R30,LOW(8)
00092a 940e 1d88 	CALL __LSRD12
00092c 0de1      	ADD  R30,R1
00092d 91a0 02e1 	LDS  R26,_val
00092f 0fea      	ADD  R30,R26
000930 91a0 02df 	LDS  R26,_LRC
000932 1bae      	SUB  R26,R30
000933 93a0 02df 	STS  _LRC,R26
                 ; 0001 01FF 
                 ; 0001 0200     sscanf_2hhx(rsp0+15, &cr);
000935 01f8      	MOVW R30,R16
000936 963f      	ADIW R30,15
000937 93fa      	ST   -Y,R31
000938 93ea      	ST   -Y,R30
000939 e5ab      	LDI  R26,LOW(_cr)
00093a e0b2      	LDI  R27,HIGH(_cr)
00093b dd36      	RCALL _sscanf_2hhx
                 ; 0001 0201     if(LRC != cr)
00093c 91e0 025b 	LDS  R30,_cr
00093e 91a0 02df 	LDS  R26,_LRC
000940 17ea      	CP   R30,R26
000941 f029      	BREQ _0x20064
                 ; 0001 0202     {
                 ; 0001 0203         senderr("#LRCfail");
                +
000942 eba4     +LDI R26 , LOW ( 2 * _0x20000 + ( 54 ) )
000943 e0b1     +LDI R27 , HIGH ( 2 * _0x20000 + ( 54 ) )
                 	__POINTW2FN _0x20000,54
000944 de69      	RCALL _senderr
                 ; 0001 0204         return 1;
000945 e0e1      	LDI  R30,LOW(1)
000946 c002      	RJMP _0x20A0008
                 ; 0001 0205     }
                 ; 0001 0206 
                 ; 0001 0207     #asm("wdr");
                 _0x20064:
000947 95a8      	wdr
                 ; 0001 0208     return 0;    //'\r' before last char test ignored
000948 e0e0      	LDI  R30,LOW(0)
                 _0x20A0008:
000949 8119      	LDD  R17,Y+1
00094a 8108      	LDD  R16,Y+0
00094b 9623      	ADIW R28,3
00094c 9508      	RET
                 ; 0001 0209 }
                 ; .FEND
                 ;
                 ;char ask_listen_validate06()
                 ; 0001 020C {
                 _ask_listen_validate06:
                 ; .FSTART _ask_listen_validate06
                 ; 0001 020D     char *rsp0;    //local variable for rsp
                 ; 0001 020E 
                 ; 0001 020F     delay_ms(3);
00094d 931a      	ST   -Y,R17
00094e 930a      	ST   -Y,R16
                 ;	*rsp0 -> R16,R17
00094f e0a3      	LDI  R26,LOW(3)
000950 e0b0      	LDI  R27,0
000951 940e 1d6d 	CALL _delay_ms
                 ; 0001 0210     start_timer0();
000953 e0e0      	LDI  R30,LOW(0)
000954 93e0 0259 	STS  _time0,R30
000956 bde6      	OUT  0x26,R30
000957 e0e3      	LDI  R30,LOW(3)
000958 bde5      	OUT  0x25,R30
                 ; 0001 0211     sendmsg();
000959 de77      	RCALL _sendmsg
                 ; 0001 0212 
                 ; 0001 0213 
                 ; 0001 0214     while(!rx_counter1)    //wait first char, timeout time0
                 _0x20065:
00095a 20cc      	TST  R12
00095b f451      	BRNE _0x20067
                 ; 0001 0215         if(time0 == SW_OCR0)
00095c 91a0 0259 	LDS  R26,_time0
00095e 37ac      	CPI  R26,LOW(0x7C)
00095f f429      	BRNE _0x20068
                 ; 0001 0216         {
                 ; 0001 0217             senderr("#fail1");
                +
000960 e7ae     +LDI R26 , LOW ( 2 * _0x20000 + ( 0 ) )
000961 e0b1     +LDI R27 , HIGH ( 2 * _0x20000 + ( 0 ) )
                 	__POINTW2FN _0x20000,0
000962 de4b      	RCALL _senderr
                 ; 0001 0218             return 1;
000963 e0e1      	LDI  R30,LOW(1)
000964 c07c      	RJMP _0x20A0007
                 ; 0001 0219         }
                 ; 0001 021A     cr=getchar1();
                 _0x20068:
000965 cff4      	RJMP _0x20065
                 _0x20067:
000966 ddc0      	RCALL _getchar1
000967 93e0 025b 	STS  _cr,R30
                 ; 0001 021B     //putchar0(cr);    //uncomment for debug
                 ; 0001 021C     *rsp=cr;
000969 93e0 029e 	STS  _rsp,R30
                 ; 0001 021D     Nrsp=1;
00096b e0e1      	LDI  R30,LOW(1)
00096c 93e0 02de 	STS  _Nrsp,R30
                 ; 0001 021E     while(cr!='\n')        //like Linux canonical serial com + timeout
                 _0x20069:
00096e 91a0 025b 	LDS  R26,_cr
000970 30aa      	CPI  R26,LOW(0xA)
000971 f0d9      	BREQ _0x2006B
                 ; 0001 021F     {
                 ; 0001 0220         if(time0 == SW_OCR0)
000972 91a0 0259 	LDS  R26,_time0
000974 37ac      	CPI  R26,LOW(0x7C)
000975 f429      	BRNE _0x2006C
                 ; 0001 0221         {
                 ; 0001 0222             senderr("#fail2");
                +
000976 e8a5     +LDI R26 , LOW ( 2 * _0x20000 + ( 7 ) )
000977 e0b1     +LDI R27 , HIGH ( 2 * _0x20000 + ( 7 ) )
                 	__POINTW2FN _0x20000,7
000978 de35      	RCALL _senderr
                 ; 0001 0223             return 1;
000979 e0e1      	LDI  R30,LOW(1)
00097a c066      	RJMP _0x20A0007
                 ; 0001 0224         }
                 ; 0001 0225         if(rx_counter1)
                 _0x2006C:
00097b 20cc      	TST  R12
00097c f079      	BREQ _0x2006D
                 ; 0001 0226         {
                 ; 0001 0227             cr=getchar1();
00097d dda9      	RCALL _getchar1
00097e 93e0 025b 	STS  _cr,R30
                 ; 0001 0228             //putchar0(cr);    //uncomment for debug
                 ; 0001 0229             rsp[Nrsp++]=cr;
000980 91e0 02de 	LDS  R30,_Nrsp
000982 5fef      	SUBI R30,-LOW(1)
000983 93e0 02de 	STS  _Nrsp,R30
000985 50e1      	SUBI R30,LOW(1)
000986 e0f0      	LDI  R31,0
000987 56e2      	SUBI R30,LOW(-_rsp)
000988 4ffd      	SBCI R31,HIGH(-_rsp)
000989 91a0 025b 	LDS  R26,_cr
00098b 83a0      	STD  Z+0,R26
                 ; 0001 022A         }
                 ; 0001 022B     }
                 _0x2006D:
00098c cfe1      	RJMP _0x20069
                 _0x2006B:
                 ; 0001 022C     rsp[Nrsp++]='\0';
00098d 91e0 02de 	LDS  R30,_Nrsp
00098f 5fef      	SUBI R30,-LOW(1)
000990 93e0 02de 	STS  _Nrsp,R30
000992 50e1      	SUBI R30,LOW(1)
000993 e0f0      	LDI  R31,0
000994 56e2      	SUBI R30,LOW(-_rsp)
000995 4ffd      	SBCI R31,HIGH(-_rsp)
000996 e0a0      	LDI  R26,LOW(0)
000997 83a0      	STD  Z+0,R26
                 ; 0001 022D 
                 ; 0001 022E     while(rx_counter1)    getchar1();    //empty rx1 buffer
                 _0x2006E:
000998 20cc      	TST  R12
000999 f011      	BREQ _0x20070
00099a dd8c      	RCALL _getchar1
00099b cffc      	RJMP _0x2006E
                 _0x20070:
                 ; 0001 022F TCCR0B=0;
00099c e0e0      	LDI  R30,LOW(0)
00099d bde5      	OUT  0x25,R30
                 ; 0001 0230     #asm("wdr");
00099e 95a8      	wdr
                 ; 0001 0231 
                 ; 0001 0232 
                 ; 0001 0233     for(i=0;  Nrsp-i>17 && rsp[i]!=':';  i++);    //ignore leading noise
00099f e0e0      	LDI  R30,LOW(0)
0009a0 93e0 02e0 	STS  _i,R30
                 _0x20072:
0009a2 91a0 02de 	LDS  R26,_Nrsp
0009a4 27bb      	CLR  R27
0009a5 91e0 02e0 	LDS  R30,_i
0009a7 e0f0      	LDI  R31,0
0009a8 1bae      	SUB  R26,R30
0009a9 0bbf      	SBC  R27,R31
0009aa 9752      	SBIW R26,18
0009ab f044      	BRLT _0x20074
0009ac 91e0 02e0 	LDS  R30,_i
0009ae e0f0      	LDI  R31,0
0009af 56e2      	SUBI R30,LOW(-_rsp)
0009b0 4ffd      	SBCI R31,HIGH(-_rsp)
0009b1 81a0      	LD   R26,Z
0009b2 33aa      	CPI  R26,LOW(0x3A)
0009b3 f409      	BRNE _0x20075
                 _0x20074:
0009b4 c006      	RJMP _0x20073
                 _0x20075:
0009b5 91e0 02e0 	LDS  R30,_i
0009b7 5fef      	SUBI R30,-LOW(1)
0009b8 93e0 02e0 	STS  _i,R30
0009ba cfe7      	RJMP _0x20072
                 _0x20073:
                 ; 0001 0234     if(Nrsp-i != 18)                              //without leading noise, 18B response expected (including '\0', begins ...
0009bb 91a0 02de 	LDS  R26,_Nrsp
0009bd 27bb      	CLR  R27
0009be 91e0 02e0 	LDS  R30,_i
0009c0 e0f0      	LDI  R31,0
0009c1 1bae      	SUB  R26,R30
0009c2 0bbf      	SBC  R27,R31
0009c3 9752      	SBIW R26,18
0009c4 f029      	BREQ _0x20076
                 ; 0001 0235     {
                 ; 0001 0236         senderr("#fail3");
                +
0009c5 e8ac     +LDI R26 , LOW ( 2 * _0x20000 + ( 14 ) )
0009c6 e0b1     +LDI R27 , HIGH ( 2 * _0x20000 + ( 14 ) )
                 	__POINTW2FN _0x20000,14
0009c7 dde6      	RCALL _senderr
                 ; 0001 0237         return 1;
0009c8 e0e1      	LDI  R30,LOW(1)
0009c9 c017      	RJMP _0x20A0007
                 ; 0001 0238     }
                 ; 0001 0239     rsp0=rsp+i;
                 _0x20076:
0009ca 91e0 02e0 	LDS  R30,_i
0009cc e0f0      	LDI  R31,0
0009cd 56e2      	SUBI R30,LOW(-_rsp)
0009ce 4ffd      	SBCI R31,HIGH(-_rsp)
0009cf 018f      	MOVW R16,R30
                 ; 0001 023A 
                 ; 0001 023B     if(strncmp(msg,rsp0,17))
0009d0 e5ee      	LDI  R30,LOW(_msg)
0009d1 e0f2      	LDI  R31,HIGH(_msg)
0009d2 93fa      	ST   -Y,R31
0009d3 93ea      	ST   -Y,R30
0009d4 931a      	ST   -Y,R17
0009d5 930a      	ST   -Y,R16
0009d6 e1a1      	LDI  R26,LOW(17)
0009d7 940e 1d18 	CALL _strncmp
0009d9 30e0      	CPI  R30,0
0009da f029      	BREQ _0x20077
                 ; 0001 023C     {
                 ; 0001 023D         senderr("#fail5");
                +
0009db ebad     +LDI R26 , LOW ( 2 * _0x20000 + ( 63 ) )
0009dc e0b1     +LDI R27 , HIGH ( 2 * _0x20000 + ( 63 ) )
                 	__POINTW2FN _0x20000,63
0009dd ddd0      	RCALL _senderr
                 ; 0001 023E         return 1;
0009de e0e1      	LDI  R30,LOW(1)
0009df c001      	RJMP _0x20A0007
                 ; 0001 023F     }
                 ; 0001 0240     return 0;
                 _0x20077:
0009e0 e0e0      	LDI  R30,LOW(0)
                 _0x20A0007:
0009e1 9109      	LD   R16,Y+
0009e2 9119      	LD   R17,Y+
0009e3 9508      	RET
                 ; 0001 0241 }
                 ; .FEND
                 ;
                 ;unsigned int ask_listen_validate04(unsigned int* pval)
                 ; 0001 0244 {
                 _ask_listen_validate04:
                 ; .FSTART _ask_listen_validate04
                 ; 0001 0245     unsigned int LRC_RX, RXval;
                 ; 0001 0246     char *rsp0;    //local variable for rsp
                 ; 0001 0247 
                 ; 0001 0248     delay_ms(3);
0009e4 93ba      	ST   -Y,R27
0009e5 93aa      	ST   -Y,R26
0009e6 940e 1e14 	CALL __SAVELOCR6
                 ;	*pval -> Y+6
                 ;	LRC_RX -> R16,R17
                 ;	RXval -> R18,R19
                 ;	*rsp0 -> R20,R21
0009e8 e0a3      	LDI  R26,LOW(3)
0009e9 e0b0      	LDI  R27,0
0009ea 940e 1d6d 	CALL _delay_ms
                 ; 0001 0249     start_timer0();
0009ec e0e0      	LDI  R30,LOW(0)
0009ed 93e0 0259 	STS  _time0,R30
0009ef bde6      	OUT  0x26,R30
0009f0 e0e3      	LDI  R30,LOW(3)
0009f1 bde5      	OUT  0x25,R30
                 ; 0001 024A     sendmsg();
0009f2 ddde      	RCALL _sendmsg
                 ; 0001 024B 
                 ; 0001 024C 
                 ; 0001 024D     while(!rx_counter1)    //wait first char, timeout time0
                 _0x20078:
0009f3 20cc      	TST  R12
0009f4 f459      	BRNE _0x2007A
                 ; 0001 024E         if(time0 == SW_OCR0)
0009f5 91a0 0259 	LDS  R26,_time0
0009f7 37ac      	CPI  R26,LOW(0x7C)
0009f8 f431      	BRNE _0x2007B
                 ; 0001 024F         {
                 ; 0001 0250             senderr("#fail1");
                +
0009f9 e7ae     +LDI R26 , LOW ( 2 * _0x20000 + ( 0 ) )
0009fa e0b1     +LDI R27 , HIGH ( 2 * _0x20000 + ( 0 ) )
                 	__POINTW2FN _0x20000,0
0009fb ddb2      	RCALL _senderr
                 ; 0001 0251             return 1;
0009fc e0e1      	LDI  R30,LOW(1)
0009fd e0f0      	LDI  R31,HIGH(1)
0009fe c0f2      	RJMP _0x20A0006
                 ; 0001 0252         }
                 ; 0001 0253     cr=getchar1();
                 _0x2007B:
0009ff cff3      	RJMP _0x20078
                 _0x2007A:
000a00 dd26      	RCALL _getchar1
000a01 93e0 025b 	STS  _cr,R30
                 ; 0001 0254     //putchar0(cr);    //uncomment for debug
                 ; 0001 0255     *rsp=cr;
000a03 93e0 029e 	STS  _rsp,R30
                 ; 0001 0256     Nrsp=1;
000a05 e0e1      	LDI  R30,LOW(1)
000a06 93e0 02de 	STS  _Nrsp,R30
                 ; 0001 0257     while(cr!='\n')        //like Linux canonical serial com + timeout
                 _0x2007C:
000a08 91a0 025b 	LDS  R26,_cr
000a0a 30aa      	CPI  R26,LOW(0xA)
000a0b f0e1      	BREQ _0x2007E
                 ; 0001 0258     {
                 ; 0001 0259         if(time0 == SW_OCR0)
000a0c 91a0 0259 	LDS  R26,_time0
000a0e 37ac      	CPI  R26,LOW(0x7C)
000a0f f431      	BRNE _0x2007F
                 ; 0001 025A         {
                 ; 0001 025B             senderr("#fail2");
                +
000a10 e8a5     +LDI R26 , LOW ( 2 * _0x20000 + ( 7 ) )
000a11 e0b1     +LDI R27 , HIGH ( 2 * _0x20000 + ( 7 ) )
                 	__POINTW2FN _0x20000,7
000a12 dd9b      	RCALL _senderr
                 ; 0001 025C             return 1;
000a13 e0e1      	LDI  R30,LOW(1)
000a14 e0f0      	LDI  R31,HIGH(1)
000a15 c0db      	RJMP _0x20A0006
                 ; 0001 025D         }
                 ; 0001 025E         if(rx_counter1)
                 _0x2007F:
000a16 20cc      	TST  R12
000a17 f079      	BREQ _0x20080
                 ; 0001 025F         {
                 ; 0001 0260             cr=getchar1();
000a18 dd0e      	RCALL _getchar1
000a19 93e0 025b 	STS  _cr,R30
                 ; 0001 0261             //putchar0(cr);    //uncomment for debug
                 ; 0001 0262             rsp[Nrsp++]=cr;
000a1b 91e0 02de 	LDS  R30,_Nrsp
000a1d 5fef      	SUBI R30,-LOW(1)
000a1e 93e0 02de 	STS  _Nrsp,R30
000a20 50e1      	SUBI R30,LOW(1)
000a21 e0f0      	LDI  R31,0
000a22 56e2      	SUBI R30,LOW(-_rsp)
000a23 4ffd      	SBCI R31,HIGH(-_rsp)
000a24 91a0 025b 	LDS  R26,_cr
000a26 83a0      	STD  Z+0,R26
                 ; 0001 0263         }
                 ; 0001 0264     }
                 _0x20080:
000a27 cfe0      	RJMP _0x2007C
                 _0x2007E:
                 ; 0001 0265     rsp[Nrsp++]='\0';
000a28 91e0 02de 	LDS  R30,_Nrsp
000a2a 5fef      	SUBI R30,-LOW(1)
000a2b 93e0 02de 	STS  _Nrsp,R30
000a2d 50e1      	SUBI R30,LOW(1)
000a2e e0f0      	LDI  R31,0
000a2f 56e2      	SUBI R30,LOW(-_rsp)
000a30 4ffd      	SBCI R31,HIGH(-_rsp)
000a31 e0a0      	LDI  R26,LOW(0)
000a32 83a0      	STD  Z+0,R26
                 ; 0001 0266 
                 ; 0001 0267     while(rx_counter1)    getchar1();    //empty rx1 buffer
                 _0x20081:
000a33 20cc      	TST  R12
000a34 f011      	BREQ _0x20083
000a35 dcf1      	RCALL _getchar1
000a36 cffc      	RJMP _0x20081
                 _0x20083:
                 ; 0001 0268 TCCR0B=0;
000a37 e0e0      	LDI  R30,LOW(0)
000a38 bde5      	OUT  0x25,R30
                 ; 0001 0269     #asm("wdr");
000a39 95a8      	wdr
                 ; 0001 026A 
                 ; 0001 026B     for(i=0;  Nrsp-i>17 && rsp[i]!=':';  i++);    //ignore leading noise
000a3a e0e0      	LDI  R30,LOW(0)
000a3b 93e0 02e0 	STS  _i,R30
                 _0x20085:
000a3d 91a0 02de 	LDS  R26,_Nrsp
000a3f 27bb      	CLR  R27
000a40 91e0 02e0 	LDS  R30,_i
000a42 e0f0      	LDI  R31,0
000a43 1bae      	SUB  R26,R30
000a44 0bbf      	SBC  R27,R31
000a45 9752      	SBIW R26,18
000a46 f044      	BRLT _0x20087
000a47 91e0 02e0 	LDS  R30,_i
000a49 e0f0      	LDI  R31,0
000a4a 56e2      	SUBI R30,LOW(-_rsp)
000a4b 4ffd      	SBCI R31,HIGH(-_rsp)
000a4c 81a0      	LD   R26,Z
000a4d 33aa      	CPI  R26,LOW(0x3A)
000a4e f409      	BRNE _0x20088
                 _0x20087:
000a4f c006      	RJMP _0x20086
                 _0x20088:
000a50 91e0 02e0 	LDS  R30,_i
000a52 5fef      	SUBI R30,-LOW(1)
000a53 93e0 02e0 	STS  _i,R30
000a55 cfe7      	RJMP _0x20085
                 _0x20086:
                 ; 0001 026C     if(Nrsp-i != 18)                              //without leading noise, 18B response expected (including '\0', begins ...
000a56 91a0 02de 	LDS  R26,_Nrsp
000a58 27bb      	CLR  R27
000a59 91e0 02e0 	LDS  R30,_i
000a5b e0f0      	LDI  R31,0
000a5c 1bae      	SUB  R26,R30
000a5d 0bbf      	SBC  R27,R31
000a5e 9752      	SBIW R26,18
000a5f f031      	BREQ _0x20089
                 ; 0001 026D     {
                 ; 0001 026E         senderr("#fail3");
                +
000a60 e8ac     +LDI R26 , LOW ( 2 * _0x20000 + ( 14 ) )
000a61 e0b1     +LDI R27 , HIGH ( 2 * _0x20000 + ( 14 ) )
                 	__POINTW2FN _0x20000,14
000a62 dd4b      	RCALL _senderr
                 ; 0001 026F         return 1;
000a63 e0e1      	LDI  R30,LOW(1)
000a64 e0f0      	LDI  R31,HIGH(1)
000a65 c08b      	RJMP _0x20A0006
                 ; 0001 0270     }
                 ; 0001 0271     rsp0=rsp+i;
                 _0x20089:
000a66 91e0 02e0 	LDS  R30,_i
000a68 e0f0      	LDI  R31,0
000a69 56e2      	SUBI R30,LOW(-_rsp)
000a6a 4ffd      	SBCI R31,HIGH(-_rsp)
000a6b 01af      	MOVW R20,R30
                 ; 0001 0272 
                 ; 0001 0273 
                 ; 0001 0274     if(strncmp(rsp0,msg,5))
000a6c 935a      	ST   -Y,R21
000a6d 934a      	ST   -Y,R20
000a6e e5ee      	LDI  R30,LOW(_msg)
000a6f e0f2      	LDI  R31,HIGH(_msg)
000a70 93fa      	ST   -Y,R31
000a71 93ea      	ST   -Y,R30
000a72 e0a5      	LDI  R26,LOW(5)
000a73 940e 1d18 	CALL _strncmp
000a75 30e0      	CPI  R30,0
000a76 f031      	BREQ _0x2008A
                 ; 0001 0275     {
                 ; 0001 0276         senderr("#fail4");
                +
000a77 e9a7     +LDI R26 , LOW ( 2 * _0x20000 + ( 25 ) )
000a78 e0b1     +LDI R27 , HIGH ( 2 * _0x20000 + ( 25 ) )
                 	__POINTW2FN _0x20000,25
000a79 dd34      	RCALL _senderr
                 ; 0001 0277         return 1;
000a7a e0e1      	LDI  R30,LOW(1)
000a7b e0f0      	LDI  R31,HIGH(1)
000a7c c074      	RJMP _0x20A0006
                 ; 0001 0278     }
                 ; 0001 0279     if(strncmpf(rsp0+5,"0002",4))
                 _0x2008A:
000a7d 01fa      	MOVW R30,R20
000a7e 9635      	ADIW R30,5
000a7f 93fa      	ST   -Y,R31
000a80 93ea      	ST   -Y,R30
                +
000a81 ece4     +LDI R30 , LOW ( 2 * _0x20000 + ( 70 ) )
000a82 e0f1     +LDI R31 , HIGH ( 2 * _0x20000 + ( 70 ) )
                 	__POINTW1FN _0x20000,70
000a83 93fa      	ST   -Y,R31
000a84 93ea      	ST   -Y,R30
000a85 e0a4      	LDI  R26,LOW(4)
000a86 940e 1d31 	CALL _strncmpf
000a88 30e0      	CPI  R30,0
000a89 f031      	BREQ _0x2008B
                 ; 0001 027A     {
                 ; 0001 027B         senderr("#fail4");
                +
000a8a e9a7     +LDI R26 , LOW ( 2 * _0x20000 + ( 25 ) )
000a8b e0b1     +LDI R27 , HIGH ( 2 * _0x20000 + ( 25 ) )
                 	__POINTW2FN _0x20000,25
000a8c dd21      	RCALL _senderr
                 ; 0001 027C         return 1;
000a8d e0e1      	LDI  R30,LOW(1)
000a8e e0f0      	LDI  R31,HIGH(1)
000a8f c061      	RJMP _0x20A0006
                 ; 0001 027D     }
                 ; 0001 027E 
                 ; 0001 027F     sscanf(rsp0+1,"%4x",&RXval);    //unit addr, Modbus fct
                 _0x2008B:
000a90 01fa      	MOVW R30,R20
000a91 9631      	ADIW R30,1
000a92 93fa      	ST   -Y,R31
000a93 93ea      	ST   -Y,R30
                +
000a94 ece9     +LDI R30 , LOW ( 2 * _0x20000 + ( 75 ) )
000a95 e0f1     +LDI R31 , HIGH ( 2 * _0x20000 + ( 75 ) )
                 	__POINTW1FN _0x20000,75
000a96 93fa      	ST   -Y,R31
000a97 93ea      	ST   -Y,R30
000a98 b7ed      	IN   R30,SPL
000a99 b7fe      	IN   R31,SPH
000a9a 9731      	SBIW R30,1
000a9b 940e 1e09 	CALL __PUTPARD1L
000a9d 933f      	PUSH R19
000a9e 932f      	PUSH R18
000a9f e084      	LDI  R24,4
000aa0 940e 1caf 	CALL _sscanf
000aa2 9628      	ADIW R28,8
000aa3 912f      	POP  R18
000aa4 913f      	POP  R19
                 ; 0001 0280     LRC = -(RXval>>8) -RXval -2;
000aa5 2fe3      	MOV  R30,R19
000aa6 70f0      	ANDI R31,HIGH(0x0)
000aa7 95e1      	NEG  R30
000aa8 1be2      	SUB  R30,R18
000aa9 50e2      	SUBI R30,LOW(2)
000aaa 93e0 02df 	STS  _LRC,R30
                 ; 0001 0281     sscanf(rsp0+9,"%4x",&RXval);    //value of input register
000aac 01fa      	MOVW R30,R20
000aad 9639      	ADIW R30,9
000aae 93fa      	ST   -Y,R31
000aaf 93ea      	ST   -Y,R30
                +
000ab0 ece9     +LDI R30 , LOW ( 2 * _0x20000 + ( 75 ) )
000ab1 e0f1     +LDI R31 , HIGH ( 2 * _0x20000 + ( 75 ) )
                 	__POINTW1FN _0x20000,75
000ab2 93fa      	ST   -Y,R31
000ab3 93ea      	ST   -Y,R30
000ab4 b7ed      	IN   R30,SPL
000ab5 b7fe      	IN   R31,SPH
000ab6 9731      	SBIW R30,1
000ab7 940e 1e09 	CALL __PUTPARD1L
000ab9 933f      	PUSH R19
000aba 932f      	PUSH R18
000abb e084      	LDI  R24,4
000abc 940e 1caf 	CALL _sscanf
000abe 9628      	ADIW R28,8
000abf 912f      	POP  R18
000ac0 913f      	POP  R19
                 ; 0001 0282     LRC -= (RXval>>8) +RXval;
000ac1 2fe3      	MOV  R30,R19
000ac2 70f0      	ANDI R31,HIGH(0x0)
000ac3 0fe2      	ADD  R30,R18
000ac4 91a0 02df 	LDS  R26,_LRC
000ac6 1bae      	SUB  R26,R30
000ac7 93a0 02df 	STS  _LRC,R26
                 ; 0001 0283     sscanf(rsp0+13,"%2x",&LRC_RX);
000ac9 01fa      	MOVW R30,R20
000aca 963d      	ADIW R30,13
000acb 93fa      	ST   -Y,R31
000acc 93ea      	ST   -Y,R30
                +
000acd eced     +LDI R30 , LOW ( 2 * _0x20000 + ( 79 ) )
000ace e0f1     +LDI R31 , HIGH ( 2 * _0x20000 + ( 79 ) )
                 	__POINTW1FN _0x20000,79
000acf 93fa      	ST   -Y,R31
000ad0 93ea      	ST   -Y,R30
000ad1 b7ed      	IN   R30,SPL
000ad2 b7fe      	IN   R31,SPH
000ad3 9731      	SBIW R30,1
000ad4 940e 1e09 	CALL __PUTPARD1L
000ad6 931f      	PUSH R17
000ad7 930f      	PUSH R16
000ad8 e084      	LDI  R24,4
000ad9 940e 1caf 	CALL _sscanf
000adb 9628      	ADIW R28,8
000adc 910f      	POP  R16
000add 911f      	POP  R17
                 ; 0001 0284     if(LRC != LRC_RX)
000ade 01f8      	MOVW R30,R16
000adf 91a0 02df 	LDS  R26,_LRC
000ae1 e0b0      	LDI  R27,0
000ae2 17ea      	CP   R30,R26
000ae3 07fb      	CPC  R31,R27
000ae4 f031      	BREQ _0x2008C
                 ; 0001 0285     {
                 ; 0001 0286         senderr("#LRCfail");
                +
000ae5 eba4     +LDI R26 , LOW ( 2 * _0x20000 + ( 54 ) )
000ae6 e0b1     +LDI R27 , HIGH ( 2 * _0x20000 + ( 54 ) )
                 	__POINTW2FN _0x20000,54
000ae7 dcc6      	RCALL _senderr
                 ; 0001 0287         return 1;
000ae8 e0e1      	LDI  R30,LOW(1)
000ae9 e0f0      	LDI  R31,HIGH(1)
000aea c006      	RJMP _0x20A0006
                 ; 0001 0288     }
                 ; 0001 0289     //else everything alright, store RXval
                 ; 0001 028A     *pval=RXval;
                 _0x2008C:
000aeb 81ae      	LDD  R26,Y+6
000aec 81bf      	LDD  R27,Y+6+1
000aed 932d      	ST   X+,R18
000aee 933c      	ST   X,R19
                 ; 0001 028B     return 0;
000aef e0e0      	LDI  R30,LOW(0)
000af0 e0f0      	LDI  R31,HIGH(0)
                 _0x20A0006:
000af1 940e 1e1b 	CALL __LOADLOCR6
000af3 9628      	ADIW R28,8
000af4 9508      	RET
                 ; 0001 028C }
                 ; .FEND
                 ;
                 ;void main(void)
                 ; 0001 028F {
                 _main:
                 ; .FSTART _main
                 ; 0001 0290     unsigned char iretry, ic1=0, ic2=0, ic3=0, ic4=0, is5;
                 ; 0001 0291     unsigned char pinAbak=255, pinAreq, LRC_TX;    //known set relay states, temp value to request
                 ; 0001 0292     unsigned int time1, retval;
                 ; 0001 0293     struct DMED121 c1;                //measurement set for energymeter 1
                 ; 0001 0294     struct DMED301 c2, c3, c4;        //measurement sets for energymeters 2-4
                 ; 0001 0295     struct Slave05 s5;
                 ; 0001 0296 
                 ; 0001 0297     initController();
000af5 97ef      	SBIW R28,63
000af6 97ef      	SBIW R28,63
000af7 97af      	SBIW R28,47
000af8 e081      	LDI  R24,1
000af9 eaac      	LDI  R26,LOW(172)
000afa e0b0      	LDI  R27,HIGH(172)
000afb e7ec      	LDI  R30,LOW(_0x2008D*2)
000afc e0f1      	LDI  R31,HIGH(_0x2008D*2)
000afd 940e 1e22 	CALL __INITLOCB
                 ;	iretry -> R17
                 ;	ic1 -> R16
                 ;	ic2 -> R19
                 ;	ic3 -> R18
                 ;	ic4 -> R21
                 ;	is5 -> R20
                 ;	pinAbak -> Y+172
                 ;	pinAreq -> Y+171
                 ;	LRC_TX -> Y+170
                 ;	time1 -> Y+168
                 ;	retval -> Y+166
                 ;	c1 -> Y+150
                 ;	c2 -> Y+102
                 ;	c3 -> Y+54
                 ;	c4 -> Y+6
                 ;	s5 -> Y+0
000aff e000      	LDI  R16,0
000b00 e030      	LDI  R19,0
000b01 e020      	LDI  R18,0
000b02 e050      	LDI  R21,0
000b03 940e 05e7 	CALL _initController
                 ; 0001 0298     pinA=PINA;
000b05 b1e0      	IN   R30,0x0
000b06 93e0 0258 	STS  _pinA,R30
                 ; 0001 0299     memset(&c1, 0, sizeof(struct DMED121));
000b08 01fe      	MOVW R30,R28
000b09 56ea      	SUBI R30,LOW(-(150))
000b0a 4fff      	SBCI R31,HIGH(-(150))
000b0b 93fa      	ST   -Y,R31
000b0c 93ea      	ST   -Y,R30
000b0d e0e0      	LDI  R30,LOW(0)
000b0e 93ea      	ST   -Y,R30
000b0f e1a0      	LDI  R26,LOW(16)
000b10 e0b0      	LDI  R27,0
000b11 940e 1ce2 	CALL _memset
                 ; 0001 029A     memset(&c2, 0, sizeof(struct DMED301));
000b13 01fe      	MOVW R30,R28
000b14 59ea      	SUBI R30,LOW(-(102))
000b15 4fff      	SBCI R31,HIGH(-(102))
000b16 93fa      	ST   -Y,R31
000b17 93ea      	ST   -Y,R30
000b18 e0e0      	LDI  R30,LOW(0)
000b19 93ea      	ST   -Y,R30
000b1a e3a0      	LDI  R26,LOW(48)
000b1b e0b0      	LDI  R27,0
000b1c 940e 1ce2 	CALL _memset
                 ; 0001 029B     memset(&c3, 0, sizeof(struct DMED301));
000b1e 01fe      	MOVW R30,R28
000b1f 96f6      	ADIW R30,54
000b20 93fa      	ST   -Y,R31
000b21 93ea      	ST   -Y,R30
000b22 e0e0      	LDI  R30,LOW(0)
000b23 93ea      	ST   -Y,R30
000b24 e3a0      	LDI  R26,LOW(48)
000b25 e0b0      	LDI  R27,0
000b26 940e 1ce2 	CALL _memset
                 ; 0001 029C     memset(&c4, 0, sizeof(struct DMED301));
000b28 01fe      	MOVW R30,R28
000b29 9636      	ADIW R30,6
000b2a 93fa      	ST   -Y,R31
000b2b 93ea      	ST   -Y,R30
000b2c e0e0      	LDI  R30,LOW(0)
000b2d 93ea      	ST   -Y,R30
000b2e e3a0      	LDI  R26,LOW(48)
000b2f e0b0      	LDI  R27,0
000b30 940e 1ce2 	CALL _memset
                 ; 0001 029D     memset(&s5, 0, sizeof(struct Slave05));
000b32 01fe      	MOVW R30,R28
000b33 93fa      	ST   -Y,R31
000b34 93ea      	ST   -Y,R30
000b35 e0e0      	LDI  R30,LOW(0)
000b36 93ea      	ST   -Y,R30
000b37 e0a6      	LDI  R26,LOW(6)
000b38 e0b0      	LDI  R27,0
000b39 940e 1ce2 	CALL _memset
                 ; 0001 029E 
                 ; 0001 029F     // Globally enable interrupts
                 ; 0001 02A0     #asm("sei")
000b3b 9478      	sei
                 ; 0001 02A1     senderr("#reset\r\n");
                +
000b3c eda1     +LDI R26 , LOW ( 2 * _0x20000 + ( 83 ) )
000b3d e0b1     +LDI R27 , HIGH ( 2 * _0x20000 + ( 83 ) )
                 	__POINTW2FN _0x20000,83
000b3e dc6f      	RCALL _senderr
                 ; 0001 02A2     while (1)
                 _0x2008E:
                 ; 0001 02A3     {
                 ; 0001 02A4 
                 ; 0001 02A5 param_set1:
                 ; 0001 02A6         start_timer1();
000b3f e0e0      	LDI  R30,LOW(0)
000b40 93e0 0085 	STS  133,R30
000b42 93e0 0084 	STS  132,R30
000b44 e0ed      	LDI  R30,LOW(13)
000b45 93e0 0081 	STS  129,R30
                 ; 0001 02A7         #asm("wdr");
000b47 95a8      	wdr
                 ; 0001 02A8         strcpyf(msg, ":010300070002F3\r\n");    //:010300070002F3\r\n
000b48 e5ee      	LDI  R30,LOW(_msg)
000b49 e0f2      	LDI  R31,HIGH(_msg)
000b4a 93fa      	ST   -Y,R31
000b4b 93ea      	ST   -Y,R30
                +
000b4c edaa     +LDI R26 , LOW ( 2 * _0x20000 + ( 92 ) )
000b4d e0b1     +LDI R27 , HIGH ( 2 * _0x20000 + ( 92 ) )
                 	__POINTW2FN _0x20000,92
000b4e 940e 1cf2 	CALL _strcpyf
                 ; 0001 02A9         for(iretry=0; iretry<3; iretry++)
000b50 e010      	LDI  R17,LOW(0)
                 _0x20093:
000b51 3013      	CPI  R17,3
000b52 f550      	BRSH _0x20094
                 ; 0001 02AA         {
                 ; 0001 02AB             if(!ask_listen_validate03(1))
000b53 e0a1      	LDI  R26,LOW(1)
000b54 dcae      	RCALL _ask_listen_validate03
000b55 30e0      	CPI  R30,0
000b56 f501      	BRNE _0x20095
                 ; 0001 02AC             {
                 ; 0001 02AD                 c1.I += val/5;
000b57 91a0 02e1 	LDS  R26,_val
000b59 91b0 02e2 	LDS  R27,_val+1
000b5b 9180 02e3 	LDS  R24,_val+2
000b5d 9190 02e4 	LDS  R25,_val+3
                +
000b5f e0e5     +LDI R30 , LOW ( 0x5 )
000b60 e0f0     +LDI R31 , HIGH ( 0x5 )
000b61 e060     +LDI R22 , BYTE3 ( 0x5 )
000b62 e070     +LDI R23 , BYTE4 ( 0x5 )
                 	__GETD1N 0x5
000b63 940e 1dd1 	CALL __DIVD21U
                +
000b65 01de     +MOVW R26 , R28
000b66 56aa     +SUBI R26 , LOW ( - 150 )
000b67 4fbf     +SBCI R27 , HIGH ( - 150 )
000b68 900d     +LD R0 , X +
000b69 901d     +LD R1 , X +
000b6a 918d     +LD R24 , X +
000b6b 919c     +LD R25 , X
000b6c 01d0     +MOVW R26 , R0
                 	__GETD2SX 150
000b6d 940e 1d7b 	CALL __ADDD12
                +
000b6f 01de     +MOVW R26 , R28
000b70 56aa     +SUBI R26 , LOW ( - 150 )
000b71 4fbf     +SBCI R27 , HIGH ( - 150 )
000b72 93ed     +ST X + , R30
000b73 93fd     +ST X + , R31
000b74 936d     +ST X + , R22
000b75 937c     +ST X , R23
                 	__PUTD1SX 150
                 ; 0001 02AE                 break;
000b76 c006      	RJMP _0x20094
                 ; 0001 02AF             }
                 ; 0001 02B0             else
                 _0x20095:
                 ; 0001 02B1             {
                 ; 0001 02B2 failed_q1:      #asm("wdr");
000b77 95a8      	wdr
                 ; 0001 02B3                 senderr("#retry_q1\n");
                +
000b78 eeac     +LDI R26 , LOW ( 2 * _0x20000 + ( 110 ) )
000b79 e0b1     +LDI R27 , HIGH ( 2 * _0x20000 + ( 110 ) )
                 	__POINTW2FN _0x20000,110
000b7a dc33      	RCALL _senderr
                 ; 0001 02B4             }
                 ; 0001 02B5         }
000b7b 5f1f      	SUBI R17,-1
000b7c cfd4      	RJMP _0x20093
                 _0x20094:
                 ; 0001 02B6         if(iretry==3)
000b7d 3013      	CPI  R17,3
000b7e f421      	BRNE _0x20098
                 ; 0001 02B7         {
                 ; 0001 02B8             senderr("#failed_q1->c1_fail\n");
                +
000b7f efa7     +LDI R26 , LOW ( 2 * _0x20000 + ( 121 ) )
000b80 e0b1     +LDI R27 , HIGH ( 2 * _0x20000 + ( 121 ) )
                 	__POINTW2FN _0x20000,121
000b81 dc2c      	RCALL _senderr
                 ; 0001 02B9             ic1=0;
000b82 c107      	RJMP _0x201DB
                 ; 0001 02BA             memset(&c1,0,sizeof(struct DMED121));    //clear param_set
                 ; 0001 02BB             goto param_set2;
                 ; 0001 02BC         }
                 ; 0001 02BD 
                 ; 0001 02BE         strcpyf(msg,":010300130002E7\r\n");
                 _0x20098:
000b83 e5ee      	LDI  R30,LOW(_msg)
000b84 e0f2      	LDI  R31,HIGH(_msg)
000b85 93fa      	ST   -Y,R31
000b86 93ea      	ST   -Y,R30
                +
000b87 e0ac     +LDI R26 , LOW ( 2 * _0x20000 + ( 142 ) )
000b88 e0b2     +LDI R27 , HIGH ( 2 * _0x20000 + ( 142 ) )
                 	__POINTW2FN _0x20000,142
000b89 940e 1cf2 	CALL _strcpyf
                 ; 0001 02BF         for(iretry=0; iretry<3; iretry++)
000b8b e010      	LDI  R17,LOW(0)
                 _0x2009B:
000b8c 3013      	CPI  R17,3
000b8d f580      	BRSH _0x2009C
                 ; 0001 02C0         {
                 ; 0001 02C1             if(!ask_listen_validate03(1))
000b8e e0a1      	LDI  R26,LOW(1)
000b8f dc73      	RCALL _ask_listen_validate03
000b90 30e0      	CPI  R30,0
000b91 f531      	BRNE _0x2009D
                 ; 0001 02C2             {
                 ; 0001 02C3                 c1.P += val/5;
000b92 01fe      	MOVW R30,R28
000b93 56ea      	SUBI R30,LOW(-(150))
000b94 4fff      	SBCI R31,HIGH(-(150))
000b95 9634      	ADIW R30,4
000b96 93ff      	PUSH R31
000b97 93ef      	PUSH R30
000b98 01df      	MOVW R26,R30
000b99 940e 1dfe 	CALL __GETD1P
000b9b 937f      	PUSH R23
000b9c 936f      	PUSH R22
000b9d 93ff      	PUSH R31
000b9e 93ef      	PUSH R30
000b9f 91a0 02e1 	LDS  R26,_val
000ba1 91b0 02e2 	LDS  R27,_val+1
000ba3 9180 02e3 	LDS  R24,_val+2
000ba5 9190 02e4 	LDS  R25,_val+3
                +
000ba7 e0e5     +LDI R30 , LOW ( 0x5 )
000ba8 e0f0     +LDI R31 , HIGH ( 0x5 )
000ba9 e060     +LDI R22 , BYTE3 ( 0x5 )
000baa e070     +LDI R23 , BYTE4 ( 0x5 )
                 	__GETD1N 0x5
000bab 940e 1dd1 	CALL __DIVD21U
000bad 91af      	POP  R26
000bae 91bf      	POP  R27
000baf 918f      	POP  R24
000bb0 919f      	POP  R25
000bb1 940e 1d7b 	CALL __ADDD12
000bb3 91af      	POP  R26
000bb4 91bf      	POP  R27
000bb5 940e 1e04 	CALL __PUTDP1
                 ; 0001 02C4                 break;
000bb7 c006      	RJMP _0x2009C
                 ; 0001 02C5             }
                 ; 0001 02C6             else
                 _0x2009D:
                 ; 0001 02C7             {
                 ; 0001 02C8 failed_q2:      #asm("wdr");
000bb8 95a8      	wdr
                 ; 0001 02C9                 senderr("#retry_q2\n");
                +
000bb9 e1ae     +LDI R26 , LOW ( 2 * _0x20000 + ( 160 ) )
000bba e0b2     +LDI R27 , HIGH ( 2 * _0x20000 + ( 160 ) )
                 	__POINTW2FN _0x20000,160
000bbb dbf2      	RCALL _senderr
                 ; 0001 02CA             }
                 ; 0001 02CB         }
000bbc 5f1f      	SUBI R17,-1
000bbd cfce      	RJMP _0x2009B
                 _0x2009C:
                 ; 0001 02CC         if(iretry==3)
000bbe 3013      	CPI  R17,3
000bbf f421      	BRNE _0x200A0
                 ; 0001 02CD         {
                 ; 0001 02CE             senderr("#failed_q2->c1_fail\n");
                +
000bc0 e2a9     +LDI R26 , LOW ( 2 * _0x20000 + ( 171 ) )
000bc1 e0b2     +LDI R27 , HIGH ( 2 * _0x20000 + ( 171 ) )
                 	__POINTW2FN _0x20000,171
000bc2 dbeb      	RCALL _senderr
                 ; 0001 02CF             ic1=0;
000bc3 c0c6      	RJMP _0x201DB
                 ; 0001 02D0             memset(&c1,0,sizeof(struct DMED121));    //clear param_set
                 ; 0001 02D1             goto param_set2;
                 ; 0001 02D2         }
                 ; 0001 02D3 
                 ; 0001 02D4         strcpyf(msg,":010300190002E1\r\n");
                 _0x200A0:
000bc4 e5ee      	LDI  R30,LOW(_msg)
000bc5 e0f2      	LDI  R31,HIGH(_msg)
000bc6 93fa      	ST   -Y,R31
000bc7 93ea      	ST   -Y,R30
                +
000bc8 e3ae     +LDI R26 , LOW ( 2 * _0x20000 + ( 192 ) )
000bc9 e0b2     +LDI R27 , HIGH ( 2 * _0x20000 + ( 192 ) )
                 	__POINTW2FN _0x20000,192
000bca 940e 1cf2 	CALL _strcpyf
                 ; 0001 02D5         for(iretry=0; iretry<3; iretry++)
000bcc e010      	LDI  R17,LOW(0)
                 _0x200A2:
000bcd 3013      	CPI  R17,3
000bce f580      	BRSH _0x200A3
                 ; 0001 02D6         {
                 ; 0001 02D7             if(!ask_listen_validate03(1))
000bcf e0a1      	LDI  R26,LOW(1)
000bd0 dc32      	RCALL _ask_listen_validate03
000bd1 30e0      	CPI  R30,0
000bd2 f531      	BRNE _0x200A4
                 ; 0001 02D8             {
                 ; 0001 02D9                 c1.Q += val/5;
000bd3 01fe      	MOVW R30,R28
000bd4 56ea      	SUBI R30,LOW(-(150))
000bd5 4fff      	SBCI R31,HIGH(-(150))
000bd6 9638      	ADIW R30,8
000bd7 93ff      	PUSH R31
000bd8 93ef      	PUSH R30
000bd9 01df      	MOVW R26,R30
000bda 940e 1dfe 	CALL __GETD1P
000bdc 937f      	PUSH R23
000bdd 936f      	PUSH R22
000bde 93ff      	PUSH R31
000bdf 93ef      	PUSH R30
000be0 91a0 02e1 	LDS  R26,_val
000be2 91b0 02e2 	LDS  R27,_val+1
000be4 9180 02e3 	LDS  R24,_val+2
000be6 9190 02e4 	LDS  R25,_val+3
                +
000be8 e0e5     +LDI R30 , LOW ( 0x5 )
000be9 e0f0     +LDI R31 , HIGH ( 0x5 )
000bea e060     +LDI R22 , BYTE3 ( 0x5 )
000beb e070     +LDI R23 , BYTE4 ( 0x5 )
                 	__GETD1N 0x5
000bec 940e 1dd1 	CALL __DIVD21U
000bee 91af      	POP  R26
000bef 91bf      	POP  R27
000bf0 918f      	POP  R24
000bf1 919f      	POP  R25
000bf2 940e 1d7b 	CALL __ADDD12
000bf4 91af      	POP  R26
000bf5 91bf      	POP  R27
000bf6 940e 1e04 	CALL __PUTDP1
                 ; 0001 02DA                 break;
000bf8 c006      	RJMP _0x200A3
                 ; 0001 02DB             }
                 ; 0001 02DC             else
                 _0x200A4:
                 ; 0001 02DD             {
                 ; 0001 02DE failed_q3:      #asm("wdr");
000bf9 95a8      	wdr
                 ; 0001 02DF                 senderr("#retry_q3\n");
                +
000bfa e5a0     +LDI R26 , LOW ( 2 * _0x20000 + ( 210 ) )
000bfb e0b2     +LDI R27 , HIGH ( 2 * _0x20000 + ( 210 ) )
                 	__POINTW2FN _0x20000,210
000bfc dbb1      	RCALL _senderr
                 ; 0001 02E0             }
                 ; 0001 02E1         }
000bfd 5f1f      	SUBI R17,-1
000bfe cfce      	RJMP _0x200A2
                 _0x200A3:
                 ; 0001 02E2         if(iretry==3)
000bff 3013      	CPI  R17,3
000c00 f421      	BRNE _0x200A7
                 ; 0001 02E3         {
                 ; 0001 02E4             senderr("#failed_q3->c1_fail\n");
                +
000c01 e5ab     +LDI R26 , LOW ( 2 * _0x20000 + ( 221 ) )
000c02 e0b2     +LDI R27 , HIGH ( 2 * _0x20000 + ( 221 ) )
                 	__POINTW2FN _0x20000,221
000c03 dbaa      	RCALL _senderr
                 ; 0001 02E5             ic1=0;
000c04 c085      	RJMP _0x201DB
                 ; 0001 02E6             memset(&c1,0,sizeof(struct DMED121));    //clear param_set
                 ; 0001 02E7             goto param_set2;
                 ; 0001 02E8         }
                 ; 0001 02E9 
                 ; 0001 02EA         strcpyf(msg,":010300010002F9\r\n");
                 _0x200A7:
000c05 e5ee      	LDI  R30,LOW(_msg)
000c06 e0f2      	LDI  R31,HIGH(_msg)
000c07 93fa      	ST   -Y,R31
000c08 93ea      	ST   -Y,R30
                +
000c09 e7a0     +LDI R26 , LOW ( 2 * _0x20000 + ( 242 ) )
000c0a e0b2     +LDI R27 , HIGH ( 2 * _0x20000 + ( 242 ) )
                 	__POINTW2FN _0x20000,242
000c0b 940e 1cf2 	CALL _strcpyf
                 ; 0001 02EB         for(iretry=0; iretry<3; iretry++)
000c0d e010      	LDI  R17,LOW(0)
                 _0x200A9:
000c0e 3013      	CPI  R17,3
000c0f f588      	BRSH _0x200AA
                 ; 0001 02EC         {
                 ; 0001 02ED             if(!ask_listen_validate03(1))
000c10 e0a1      	LDI  R26,LOW(1)
000c11 dbf1      	RCALL _ask_listen_validate03
000c12 30e0      	CPI  R30,0
000c13 f531      	BRNE _0x200AB
                 ; 0001 02EE             {
                 ; 0001 02EF                 c1.V += val/5;
000c14 01fe      	MOVW R30,R28
000c15 56ea      	SUBI R30,LOW(-(150))
000c16 4fff      	SBCI R31,HIGH(-(150))
000c17 963c      	ADIW R30,12
000c18 93ff      	PUSH R31
000c19 93ef      	PUSH R30
000c1a 01df      	MOVW R26,R30
000c1b 940e 1dfe 	CALL __GETD1P
000c1d 937f      	PUSH R23
000c1e 936f      	PUSH R22
000c1f 93ff      	PUSH R31
000c20 93ef      	PUSH R30
000c21 91a0 02e1 	LDS  R26,_val
000c23 91b0 02e2 	LDS  R27,_val+1
000c25 9180 02e3 	LDS  R24,_val+2
000c27 9190 02e4 	LDS  R25,_val+3
                +
000c29 e0e5     +LDI R30 , LOW ( 0x5 )
000c2a e0f0     +LDI R31 , HIGH ( 0x5 )
000c2b e060     +LDI R22 , BYTE3 ( 0x5 )
000c2c e070     +LDI R23 , BYTE4 ( 0x5 )
                 	__GETD1N 0x5
000c2d 940e 1dd1 	CALL __DIVD21U
000c2f 91af      	POP  R26
000c30 91bf      	POP  R27
000c31 918f      	POP  R24
000c32 919f      	POP  R25
000c33 940e 1d7b 	CALL __ADDD12
000c35 91af      	POP  R26
000c36 91bf      	POP  R27
000c37 940e 1e04 	CALL __PUTDP1
                 ; 0001 02F0                 break;
000c39 c007      	RJMP _0x200AA
                 ; 0001 02F1             }
                 ; 0001 02F2             else
                 _0x200AB:
                 ; 0001 02F3             {
                 ; 0001 02F4 failed_q4:      #asm("wdr");
000c3a 95a8      	wdr
                 ; 0001 02F5                 senderr("#retry_q4\n");
                +
000c3b e8a2     +LDI R26 , LOW ( 2 * _0x20000 + ( 260 ) )
000c3c e0b2     +LDI R27 , HIGH ( 2 * _0x20000 + ( 260 ) )
                 	__POINTW2FN _0x20000,260
000c3d 940e 07ae 	CALL _senderr
                 ; 0001 02F6             }
                 ; 0001 02F7         }
000c3f 5f1f      	SUBI R17,-1
000c40 cfcd      	RJMP _0x200A9
                 _0x200AA:
                 ; 0001 02F8         if(iretry==3)
000c41 3013      	CPI  R17,3
000c42 f429      	BRNE _0x200AE
                 ; 0001 02F9         {
                 ; 0001 02FA             senderr("#failed_q4->c1_fail\n");
                +
000c43 e8ad     +LDI R26 , LOW ( 2 * _0x20000 + ( 271 ) )
000c44 e0b2     +LDI R27 , HIGH ( 2 * _0x20000 + ( 271 ) )
                 	__POINTW2FN _0x20000,271
000c45 940e 07ae 	CALL _senderr
                 ; 0001 02FB             ic1=0;
000c47 c042      	RJMP _0x201DB
                 ; 0001 02FC             memset(&c1,0,sizeof(struct DMED121));    //clear param_set
                 ; 0001 02FD             goto param_set2;
                 ; 0001 02FE         }
                 ; 0001 02FF 
                 ; 0001 0300 
                 ; 0001 0301         if(++ic1==5)    // 5 values acquired, insert obtained mean
                 _0x200AE:
000c48 5f0f      	SUBI R16,-LOW(1)
000c49 3005      	CPI  R16,5
000c4a f009      	BREQ PC+2
000c4b c04a      	RJMP _0x200AF
                 ; 0001 0302         {
                 ; 0001 0303             strcpyf(msg,"CALL insert_em1(");
000c4c e5ee      	LDI  R30,LOW(_msg)
000c4d e0f2      	LDI  R31,HIGH(_msg)
000c4e 93fa      	ST   -Y,R31
000c4f 93ea      	ST   -Y,R30
                +
000c50 eaa2     +LDI R26 , LOW ( 2 * _0x20000 + ( 292 ) )
000c51 e0b2     +LDI R27 , HIGH ( 2 * _0x20000 + ( 292 ) )
                 	__POINTW2FN _0x20000,292
000c52 940e 1cf2 	CALL _strcpyf
                 ; 0001 0304             sendqry();
000c54 940e 07eb 	CALL _sendqry
                 ; 0001 0305             #asm("wdr");
000c56 95a8      	wdr
                 ; 0001 0306             sprintf(msg,"%ld,%ld,%ld,%ld);\n", c1.I, c1.P, c1.Q, c1.V);
000c57 e5ee      	LDI  R30,LOW(_msg)
000c58 e0f2      	LDI  R31,HIGH(_msg)
000c59 93fa      	ST   -Y,R31
000c5a 93ea      	ST   -Y,R30
                +
000c5b ebe3     +LDI R30 , LOW ( 2 * _0x20000 + ( 309 ) )
000c5c e0f2     +LDI R31 , HIGH ( 2 * _0x20000 + ( 309 ) )
                 	__POINTW1FN _0x20000,309
000c5d 93fa      	ST   -Y,R31
000c5e 93ea      	ST   -Y,R30
                +
000c5f 01fe     +MOVW R30 , R28
000c60 56e6     +SUBI R30 , LOW ( - 154 )
000c61 4fff     +SBCI R31 , HIGH ( - 154 )
000c62 9001     +LD R0 , Z +
000c63 9011     +LD R1 , Z +
000c64 9161     +LD R22 , Z +
000c65 8170     +LD R23 , Z
000c66 01f0     +MOVW R30 , R0
                 	__GETD1SX 154
000c67 940e 1e0b 	CALL __PUTPARD1
000c69 01fe      	MOVW R30,R28
000c6a 56e2      	SUBI R30,LOW(-(158))
000c6b 4fff      	SBCI R31,HIGH(-(158))
000c6c 9634      	ADIW R30,4
000c6d 01df      	MOVW R26,R30
000c6e 940e 1dfe 	CALL __GETD1P
000c70 940e 1e0b 	CALL __PUTPARD1
000c72 01fe      	MOVW R30,R28
000c73 55ee      	SUBI R30,LOW(-(162))
000c74 4fff      	SBCI R31,HIGH(-(162))
000c75 9638      	ADIW R30,8
000c76 01df      	MOVW R26,R30
000c77 940e 1dfe 	CALL __GETD1P
000c79 940e 1e0b 	CALL __PUTPARD1
000c7b 01fe      	MOVW R30,R28
000c7c 55ea      	SUBI R30,LOW(-(166))
000c7d 4fff      	SBCI R31,HIGH(-(166))
000c7e 963c      	ADIW R30,12
000c7f 01df      	MOVW R26,R30
000c80 940e 1dfe 	CALL __GETD1P
000c82 940e 1e0b 	CALL __PUTPARD1
000c84 e180      	LDI  R24,16
000c85 940e 1a9b 	CALL _sprintf
000c87 9664      	ADIW R28,20
                 ; 0001 0307             sendqry();
000c88 940e 07eb 	CALL _sendqry
                 ; 0001 0308             ic1=0;
                 _0x201DB:
000c8a e000      	LDI  R16,LOW(0)
                 ; 0001 0309             memset(&c1,0,sizeof(struct DMED121));    //clear param_set
000c8b 01fe      	MOVW R30,R28
000c8c 56ea      	SUBI R30,LOW(-(150))
000c8d 4fff      	SBCI R31,HIGH(-(150))
000c8e 93fa      	ST   -Y,R31
000c8f 93ea      	ST   -Y,R30
000c90 e0e0      	LDI  R30,LOW(0)
000c91 93ea      	ST   -Y,R30
000c92 e1a0      	LDI  R26,LOW(16)
000c93 e0b0      	LDI  R27,0
000c94 940e 1ce2 	CALL _memset
                 ; 0001 030A         }
                 ; 0001 030B 
                 ; 0001 030C 
                 ; 0001 030D 
                 ; 0001 030E param_set2:
                 _0x200AF:
                 ; 0001 030F         strcpyf(msg,":020300070002F2\r\n");
000c96 e5ee      	LDI  R30,LOW(_msg)
000c97 e0f2      	LDI  R31,HIGH(_msg)
000c98 93fa      	ST   -Y,R31
000c99 93ea      	ST   -Y,R30
                +
000c9a eca6     +LDI R26 , LOW ( 2 * _0x20000 + ( 328 ) )
000c9b e0b2     +LDI R27 , HIGH ( 2 * _0x20000 + ( 328 ) )
                 	__POINTW2FN _0x20000,328
000c9c 940e 1cf2 	CALL _strcpyf
                 ; 0001 0310         for(iretry=0; iretry<3; iretry++)
000c9e e010      	LDI  R17,LOW(0)
                 _0x200B1:
000c9f 3013      	CPI  R17,3
000ca0 f560      	BRSH _0x200B2
                 ; 0001 0311         {
                 ; 0001 0312             if(!ask_listen_validate03(2))
000ca1 e0a2      	LDI  R26,LOW(2)
000ca2 940e 0803 	CALL _ask_listen_validate03
000ca4 30e0      	CPI  R30,0
000ca5 f501      	BRNE _0x200B3
                 ; 0001 0313             {
                 ; 0001 0314                 c2.I1 += val/5;
000ca6 91a0 02e1 	LDS  R26,_val
000ca8 91b0 02e2 	LDS  R27,_val+1
000caa 9180 02e3 	LDS  R24,_val+2
000cac 9190 02e4 	LDS  R25,_val+3
                +
000cae e0e5     +LDI R30 , LOW ( 0x5 )
000caf e0f0     +LDI R31 , HIGH ( 0x5 )
000cb0 e060     +LDI R22 , BYTE3 ( 0x5 )
000cb1 e070     +LDI R23 , BYTE4 ( 0x5 )
                 	__GETD1N 0x5
000cb2 940e 1dd1 	CALL __DIVD21U
                +
000cb4 01de     +MOVW R26 , R28
000cb5 59aa     +SUBI R26 , LOW ( - 102 )
000cb6 4fbf     +SBCI R27 , HIGH ( - 102 )
000cb7 900d     +LD R0 , X +
000cb8 901d     +LD R1 , X +
000cb9 918d     +LD R24 , X +
000cba 919c     +LD R25 , X
000cbb 01d0     +MOVW R26 , R0
                 	__GETD2SX 102
000cbc 940e 1d7b 	CALL __ADDD12
                +
000cbe 01de     +MOVW R26 , R28
000cbf 59aa     +SUBI R26 , LOW ( - 102 )
000cc0 4fbf     +SBCI R27 , HIGH ( - 102 )
000cc1 93ed     +ST X + , R30
000cc2 93fd     +ST X + , R31
000cc3 936d     +ST X + , R22
000cc4 937c     +ST X , R23
                 	__PUTD1SX 102
                 ; 0001 0315                 break;
000cc5 c007      	RJMP _0x200B2
                 ; 0001 0316             }
                 ; 0001 0317             else
                 _0x200B3:
                 ; 0001 0318             {
                 ; 0001 0319 failed_q5:      #asm("wdr");
000cc6 95a8      	wdr
                 ; 0001 031A                 senderr("#retry_q5\n");
                +
000cc7 eda8     +LDI R26 , LOW ( 2 * _0x20000 + ( 346 ) )
000cc8 e0b2     +LDI R27 , HIGH ( 2 * _0x20000 + ( 346 ) )
                 	__POINTW2FN _0x20000,346
000cc9 940e 07ae 	CALL _senderr
                 ; 0001 031B             }
                 ; 0001 031C         }
000ccb 5f1f      	SUBI R17,-1
000ccc cfd2      	RJMP _0x200B1
                 _0x200B2:
                 ; 0001 031D         if(iretry==3)
000ccd 3013      	CPI  R17,3
000cce f431      	BRNE _0x200B6
                 ; 0001 031E         {
                 ; 0001 031F             senderr("#failed_q5->c2_fail\n");
                +
000ccf eea3     +LDI R26 , LOW ( 2 * _0x20000 + ( 357 ) )
000cd0 e0b2     +LDI R27 , HIGH ( 2 * _0x20000 + ( 357 ) )
                 	__POINTW2FN _0x20000,357
000cd1 940e 07ae 	CALL _senderr
                 ; 0001 0320             ic2=0;
000cd3 940c 1070 	JMP  _0x201DC
                 ; 0001 0321             memset(&c2,0,sizeof(struct DMED301));    //clear param_set
                 ; 0001 0322             goto param_set3;
                 ; 0001 0323         }
                 ; 0001 0324 
                 ; 0001 0325         strcpyf(msg,":020300090002F0\r\n");
                 _0x200B6:
000cd5 e5ee      	LDI  R30,LOW(_msg)
000cd6 e0f2      	LDI  R31,HIGH(_msg)
000cd7 93fa      	ST   -Y,R31
000cd8 93ea      	ST   -Y,R30
                +
000cd9 efa8     +LDI R26 , LOW ( 2 * _0x20000 + ( 378 ) )
000cda e0b2     +LDI R27 , HIGH ( 2 * _0x20000 + ( 378 ) )
                 	__POINTW2FN _0x20000,378
000cdb 940e 1cf2 	CALL _strcpyf
                 ; 0001 0326         for(iretry=0; iretry<3; iretry++)
000cdd e010      	LDI  R17,LOW(0)
                 _0x200B9:
000cde 3013      	CPI  R17,3
000cdf f590      	BRSH _0x200BA
                 ; 0001 0327         {
                 ; 0001 0328             if(!ask_listen_validate03(2))
000ce0 e0a2      	LDI  R26,LOW(2)
000ce1 940e 0803 	CALL _ask_listen_validate03
000ce3 30e0      	CPI  R30,0
000ce4 f531      	BRNE _0x200BB
                 ; 0001 0329             {
                 ; 0001 032A                 c2.I2 += val/5;
000ce5 01fe      	MOVW R30,R28
000ce6 59ea      	SUBI R30,LOW(-(102))
000ce7 4fff      	SBCI R31,HIGH(-(102))
000ce8 9634      	ADIW R30,4
000ce9 93ff      	PUSH R31
000cea 93ef      	PUSH R30
000ceb 01df      	MOVW R26,R30
000cec 940e 1dfe 	CALL __GETD1P
000cee 937f      	PUSH R23
000cef 936f      	PUSH R22
000cf0 93ff      	PUSH R31
000cf1 93ef      	PUSH R30
000cf2 91a0 02e1 	LDS  R26,_val
000cf4 91b0 02e2 	LDS  R27,_val+1
000cf6 9180 02e3 	LDS  R24,_val+2
000cf8 9190 02e4 	LDS  R25,_val+3
                +
000cfa e0e5     +LDI R30 , LOW ( 0x5 )
000cfb e0f0     +LDI R31 , HIGH ( 0x5 )
000cfc e060     +LDI R22 , BYTE3 ( 0x5 )
000cfd e070     +LDI R23 , BYTE4 ( 0x5 )
                 	__GETD1N 0x5
000cfe 940e 1dd1 	CALL __DIVD21U
000d00 91af      	POP  R26
000d01 91bf      	POP  R27
000d02 918f      	POP  R24
000d03 919f      	POP  R25
000d04 940e 1d7b 	CALL __ADDD12
000d06 91af      	POP  R26
000d07 91bf      	POP  R27
000d08 940e 1e04 	CALL __PUTDP1
                 ; 0001 032B                 break;
000d0a c007      	RJMP _0x200BA
                 ; 0001 032C             }
                 ; 0001 032D             else
                 _0x200BB:
                 ; 0001 032E             {
                 ; 0001 032F failed_q6:      #asm("wdr");
000d0b 95a8      	wdr
                 ; 0001 0330                 senderr("#retry_q6\n");
                +
000d0c e0aa     +LDI R26 , LOW ( 2 * _0x20000 + ( 396 ) )
000d0d e0b3     +LDI R27 , HIGH ( 2 * _0x20000 + ( 396 ) )
                 	__POINTW2FN _0x20000,396
000d0e 940e 07ae 	CALL _senderr
                 ; 0001 0331             }
                 ; 0001 0332         }
000d10 5f1f      	SUBI R17,-1
000d11 cfcc      	RJMP _0x200B9
                 _0x200BA:
                 ; 0001 0333         if(iretry==3)
000d12 3013      	CPI  R17,3
000d13 f431      	BRNE _0x200BE
                 ; 0001 0334         {
                 ; 0001 0335             senderr("#failed_q6->c2_fail\n");
                +
000d14 e1a5     +LDI R26 , LOW ( 2 * _0x20000 + ( 407 ) )
000d15 e0b3     +LDI R27 , HIGH ( 2 * _0x20000 + ( 407 ) )
                 	__POINTW2FN _0x20000,407
000d16 940e 07ae 	CALL _senderr
                 ; 0001 0336             ic2=0;
000d18 940c 1070 	JMP  _0x201DC
                 ; 0001 0337             memset(&c2,0,sizeof(struct DMED301));    //clear param_set
                 ; 0001 0338             goto param_set3;
                 ; 0001 0339         }
                 ; 0001 033A 
                 ; 0001 033B         strcpyf(msg,":0203000B0002EE\r\n");
                 _0x200BE:
000d1a e5ee      	LDI  R30,LOW(_msg)
000d1b e0f2      	LDI  R31,HIGH(_msg)
000d1c 93fa      	ST   -Y,R31
000d1d 93ea      	ST   -Y,R30
                +
000d1e e2aa     +LDI R26 , LOW ( 2 * _0x20000 + ( 428 ) )
000d1f e0b3     +LDI R27 , HIGH ( 2 * _0x20000 + ( 428 ) )
                 	__POINTW2FN _0x20000,428
000d20 940e 1cf2 	CALL _strcpyf
                 ; 0001 033C         for(iretry=0; iretry<3; iretry++)
000d22 e010      	LDI  R17,LOW(0)
                 _0x200C0:
000d23 3013      	CPI  R17,3
000d24 f590      	BRSH _0x200C1
                 ; 0001 033D         {
                 ; 0001 033E             if(!ask_listen_validate03(2))
000d25 e0a2      	LDI  R26,LOW(2)
000d26 940e 0803 	CALL _ask_listen_validate03
000d28 30e0      	CPI  R30,0
000d29 f531      	BRNE _0x200C2
                 ; 0001 033F             {
                 ; 0001 0340                 c2.I3 += val/5;
000d2a 01fe      	MOVW R30,R28
000d2b 59ea      	SUBI R30,LOW(-(102))
000d2c 4fff      	SBCI R31,HIGH(-(102))
000d2d 9638      	ADIW R30,8
000d2e 93ff      	PUSH R31
000d2f 93ef      	PUSH R30
000d30 01df      	MOVW R26,R30
000d31 940e 1dfe 	CALL __GETD1P
000d33 937f      	PUSH R23
000d34 936f      	PUSH R22
000d35 93ff      	PUSH R31
000d36 93ef      	PUSH R30
000d37 91a0 02e1 	LDS  R26,_val
000d39 91b0 02e2 	LDS  R27,_val+1
000d3b 9180 02e3 	LDS  R24,_val+2
000d3d 9190 02e4 	LDS  R25,_val+3
                +
000d3f e0e5     +LDI R30 , LOW ( 0x5 )
000d40 e0f0     +LDI R31 , HIGH ( 0x5 )
000d41 e060     +LDI R22 , BYTE3 ( 0x5 )
000d42 e070     +LDI R23 , BYTE4 ( 0x5 )
                 	__GETD1N 0x5
000d43 940e 1dd1 	CALL __DIVD21U
000d45 91af      	POP  R26
000d46 91bf      	POP  R27
000d47 918f      	POP  R24
000d48 919f      	POP  R25
000d49 940e 1d7b 	CALL __ADDD12
000d4b 91af      	POP  R26
000d4c 91bf      	POP  R27
000d4d 940e 1e04 	CALL __PUTDP1
                 ; 0001 0341                 break;
000d4f c007      	RJMP _0x200C1
                 ; 0001 0342             }
                 ; 0001 0343             else
                 _0x200C2:
                 ; 0001 0344             {
                 ; 0001 0345 failed_q7:      #asm("wdr");
000d50 95a8      	wdr
                 ; 0001 0346                 senderr("#retry_q7\n");
                +
000d51 e3ac     +LDI R26 , LOW ( 2 * _0x20000 + ( 446 ) )
000d52 e0b3     +LDI R27 , HIGH ( 2 * _0x20000 + ( 446 ) )
                 	__POINTW2FN _0x20000,446
000d53 940e 07ae 	CALL _senderr
                 ; 0001 0347             }
                 ; 0001 0348         }
000d55 5f1f      	SUBI R17,-1
000d56 cfcc      	RJMP _0x200C0
                 _0x200C1:
                 ; 0001 0349         if(iretry==3)
000d57 3013      	CPI  R17,3
000d58 f431      	BRNE _0x200C5
                 ; 0001 034A         {
                 ; 0001 034B             senderr("#failed_q7->c2_fail\n");
                +
000d59 e4a7     +LDI R26 , LOW ( 2 * _0x20000 + ( 457 ) )
000d5a e0b3     +LDI R27 , HIGH ( 2 * _0x20000 + ( 457 ) )
                 	__POINTW2FN _0x20000,457
000d5b 940e 07ae 	CALL _senderr
                 ; 0001 034C             ic2=0;
000d5d 940c 1070 	JMP  _0x201DC
                 ; 0001 034D             memset(&c2,0,sizeof(struct DMED301));    //clear param_set
                 ; 0001 034E             goto param_set3;
                 ; 0001 034F         }
                 ; 0001 0350 
                 ; 0001 0351         strcpyf(msg,":020300130002E6\r\n");
                 _0x200C5:
000d5f e5ee      	LDI  R30,LOW(_msg)
000d60 e0f2      	LDI  R31,HIGH(_msg)
000d61 93fa      	ST   -Y,R31
000d62 93ea      	ST   -Y,R30
                +
000d63 e5ac     +LDI R26 , LOW ( 2 * _0x20000 + ( 478 ) )
000d64 e0b3     +LDI R27 , HIGH ( 2 * _0x20000 + ( 478 ) )
                 	__POINTW2FN _0x20000,478
000d65 940e 1cf2 	CALL _strcpyf
                 ; 0001 0352         for(iretry=0; iretry<3; iretry++)
000d67 e010      	LDI  R17,LOW(0)
                 _0x200C7:
000d68 3013      	CPI  R17,3
000d69 f590      	BRSH _0x200C8
                 ; 0001 0353         {
                 ; 0001 0354             if(!ask_listen_validate03(2))
000d6a e0a2      	LDI  R26,LOW(2)
000d6b 940e 0803 	CALL _ask_listen_validate03
000d6d 30e0      	CPI  R30,0
000d6e f531      	BRNE _0x200C9
                 ; 0001 0355             {
                 ; 0001 0356                 c2.P1 += val/5;
000d6f 01fe      	MOVW R30,R28
000d70 59ea      	SUBI R30,LOW(-(102))
000d71 4fff      	SBCI R31,HIGH(-(102))
000d72 963c      	ADIW R30,12
000d73 93ff      	PUSH R31
000d74 93ef      	PUSH R30
000d75 01df      	MOVW R26,R30
000d76 940e 1dfe 	CALL __GETD1P
000d78 937f      	PUSH R23
000d79 936f      	PUSH R22
000d7a 93ff      	PUSH R31
000d7b 93ef      	PUSH R30
000d7c 91a0 02e1 	LDS  R26,_val
000d7e 91b0 02e2 	LDS  R27,_val+1
000d80 9180 02e3 	LDS  R24,_val+2
000d82 9190 02e4 	LDS  R25,_val+3
                +
000d84 e0e5     +LDI R30 , LOW ( 0x5 )
000d85 e0f0     +LDI R31 , HIGH ( 0x5 )
000d86 e060     +LDI R22 , BYTE3 ( 0x5 )
000d87 e070     +LDI R23 , BYTE4 ( 0x5 )
                 	__GETD1N 0x5
000d88 940e 1dd1 	CALL __DIVD21U
000d8a 91af      	POP  R26
000d8b 91bf      	POP  R27
000d8c 918f      	POP  R24
000d8d 919f      	POP  R25
000d8e 940e 1d7b 	CALL __ADDD12
000d90 91af      	POP  R26
000d91 91bf      	POP  R27
000d92 940e 1e04 	CALL __PUTDP1
                 ; 0001 0357                 break;
000d94 c007      	RJMP _0x200C8
                 ; 0001 0358             }
                 ; 0001 0359             else
                 _0x200C9:
                 ; 0001 035A             {
                 ; 0001 035B failed_q8:      #asm("wdr");
000d95 95a8      	wdr
                 ; 0001 035C                 senderr("#retry_q8\n");
                +
000d96 e6ae     +LDI R26 , LOW ( 2 * _0x20000 + ( 496 ) )
000d97 e0b3     +LDI R27 , HIGH ( 2 * _0x20000 + ( 496 ) )
                 	__POINTW2FN _0x20000,496
000d98 940e 07ae 	CALL _senderr
                 ; 0001 035D             }
                 ; 0001 035E         }
000d9a 5f1f      	SUBI R17,-1
000d9b cfcc      	RJMP _0x200C7
                 _0x200C8:
                 ; 0001 035F         if(iretry==3)
000d9c 3013      	CPI  R17,3
000d9d f429      	BRNE _0x200CC
                 ; 0001 0360         {
                 ; 0001 0361             senderr("#failed_q8->c2_fail\n");
                +
000d9e e7a9     +LDI R26 , LOW ( 2 * _0x20000 + ( 507 ) )
000d9f e0b3     +LDI R27 , HIGH ( 2 * _0x20000 + ( 507 ) )
                 	__POINTW2FN _0x20000,507
000da0 940e 07ae 	CALL _senderr
                 ; 0001 0362             ic2=0;
000da2 c2cd      	RJMP _0x201DC
                 ; 0001 0363             memset(&c2,0,sizeof(struct DMED301));    //clear param_set
                 ; 0001 0364             goto param_set3;
                 ; 0001 0365         }
                 ; 0001 0366 
                 ; 0001 0367         strcpyf(msg,":020300150002E4\r\n");
                 _0x200CC:
000da3 e5ee      	LDI  R30,LOW(_msg)
000da4 e0f2      	LDI  R31,HIGH(_msg)
000da5 93fa      	ST   -Y,R31
000da6 93ea      	ST   -Y,R30
                +
000da7 e8ae     +LDI R26 , LOW ( 2 * _0x20000 + ( 528 ) )
000da8 e0b3     +LDI R27 , HIGH ( 2 * _0x20000 + ( 528 ) )
                 	__POINTW2FN _0x20000,528
000da9 940e 1cf2 	CALL _strcpyf
                 ; 0001 0368         for(iretry=0; iretry<3; iretry++)
000dab e010      	LDI  R17,LOW(0)
                 _0x200CE:
000dac 3013      	CPI  R17,3
000dad f590      	BRSH _0x200CF
                 ; 0001 0369         {
                 ; 0001 036A             if(!ask_listen_validate03(2))
000dae e0a2      	LDI  R26,LOW(2)
000daf 940e 0803 	CALL _ask_listen_validate03
000db1 30e0      	CPI  R30,0
000db2 f531      	BRNE _0x200D0
                 ; 0001 036B             {
                 ; 0001 036C                 c2.P2 += val/5;
000db3 01fe      	MOVW R30,R28
000db4 59ea      	SUBI R30,LOW(-(102))
000db5 4fff      	SBCI R31,HIGH(-(102))
000db6 9670      	ADIW R30,16
000db7 93ff      	PUSH R31
000db8 93ef      	PUSH R30
000db9 01df      	MOVW R26,R30
000dba 940e 1dfe 	CALL __GETD1P
000dbc 937f      	PUSH R23
000dbd 936f      	PUSH R22
000dbe 93ff      	PUSH R31
000dbf 93ef      	PUSH R30
000dc0 91a0 02e1 	LDS  R26,_val
000dc2 91b0 02e2 	LDS  R27,_val+1
000dc4 9180 02e3 	LDS  R24,_val+2
000dc6 9190 02e4 	LDS  R25,_val+3
                +
000dc8 e0e5     +LDI R30 , LOW ( 0x5 )
000dc9 e0f0     +LDI R31 , HIGH ( 0x5 )
000dca e060     +LDI R22 , BYTE3 ( 0x5 )
000dcb e070     +LDI R23 , BYTE4 ( 0x5 )
                 	__GETD1N 0x5
000dcc 940e 1dd1 	CALL __DIVD21U
000dce 91af      	POP  R26
000dcf 91bf      	POP  R27
000dd0 918f      	POP  R24
000dd1 919f      	POP  R25
000dd2 940e 1d7b 	CALL __ADDD12
000dd4 91af      	POP  R26
000dd5 91bf      	POP  R27
000dd6 940e 1e04 	CALL __PUTDP1
                 ; 0001 036D                 break;
000dd8 c007      	RJMP _0x200CF
                 ; 0001 036E             }
                 ; 0001 036F             else
                 _0x200D0:
                 ; 0001 0370             {
                 ; 0001 0371 failed_q9:      #asm("wdr");
000dd9 95a8      	wdr
                 ; 0001 0372                 senderr("#retry_q9\n");
                +
000dda eaa0     +LDI R26 , LOW ( 2 * _0x20000 + ( 546 ) )
000ddb e0b3     +LDI R27 , HIGH ( 2 * _0x20000 + ( 546 ) )
                 	__POINTW2FN _0x20000,546
000ddc 940e 07ae 	CALL _senderr
                 ; 0001 0373             }
                 ; 0001 0374         }
000dde 5f1f      	SUBI R17,-1
000ddf cfcc      	RJMP _0x200CE
                 _0x200CF:
                 ; 0001 0375         if(iretry==3)
000de0 3013      	CPI  R17,3
000de1 f429      	BRNE _0x200D3
                 ; 0001 0376         {
                 ; 0001 0377             senderr("#failed_q9->c2_fail\n");
                +
000de2 eaab     +LDI R26 , LOW ( 2 * _0x20000 + ( 557 ) )
000de3 e0b3     +LDI R27 , HIGH ( 2 * _0x20000 + ( 557 ) )
                 	__POINTW2FN _0x20000,557
000de4 940e 07ae 	CALL _senderr
                 ; 0001 0378             ic2=0;
000de6 c289      	RJMP _0x201DC
                 ; 0001 0379             memset(&c2,0,sizeof(struct DMED301));    //clear param_set
                 ; 0001 037A             goto param_set3;
                 ; 0001 037B         }
                 ; 0001 037C 
                 ; 0001 037D         strcpyf(msg,":020300170002E2\r\n");
                 _0x200D3:
000de7 e5ee      	LDI  R30,LOW(_msg)
000de8 e0f2      	LDI  R31,HIGH(_msg)
000de9 93fa      	ST   -Y,R31
000dea 93ea      	ST   -Y,R30
                +
000deb eca0     +LDI R26 , LOW ( 2 * _0x20000 + ( 578 ) )
000dec e0b3     +LDI R27 , HIGH ( 2 * _0x20000 + ( 578 ) )
                 	__POINTW2FN _0x20000,578
000ded 940e 1cf2 	CALL _strcpyf
                 ; 0001 037E         for(iretry=0; iretry<3; iretry++)
000def e010      	LDI  R17,LOW(0)
                 _0x200D5:
000df0 3013      	CPI  R17,3
000df1 f590      	BRSH _0x200D6
                 ; 0001 037F         {
                 ; 0001 0380             if(!ask_listen_validate03(2))
000df2 e0a2      	LDI  R26,LOW(2)
000df3 940e 0803 	CALL _ask_listen_validate03
000df5 30e0      	CPI  R30,0
000df6 f531      	BRNE _0x200D7
                 ; 0001 0381             {
                 ; 0001 0382                 c2.P3 += val/5;
000df7 01fe      	MOVW R30,R28
000df8 59ea      	SUBI R30,LOW(-(102))
000df9 4fff      	SBCI R31,HIGH(-(102))
000dfa 9674      	ADIW R30,20
000dfb 93ff      	PUSH R31
000dfc 93ef      	PUSH R30
000dfd 01df      	MOVW R26,R30
000dfe 940e 1dfe 	CALL __GETD1P
000e00 937f      	PUSH R23
000e01 936f      	PUSH R22
000e02 93ff      	PUSH R31
000e03 93ef      	PUSH R30
000e04 91a0 02e1 	LDS  R26,_val
000e06 91b0 02e2 	LDS  R27,_val+1
000e08 9180 02e3 	LDS  R24,_val+2
000e0a 9190 02e4 	LDS  R25,_val+3
                +
000e0c e0e5     +LDI R30 , LOW ( 0x5 )
000e0d e0f0     +LDI R31 , HIGH ( 0x5 )
000e0e e060     +LDI R22 , BYTE3 ( 0x5 )
000e0f e070     +LDI R23 , BYTE4 ( 0x5 )
                 	__GETD1N 0x5
000e10 940e 1dd1 	CALL __DIVD21U
000e12 91af      	POP  R26
000e13 91bf      	POP  R27
000e14 918f      	POP  R24
000e15 919f      	POP  R25
000e16 940e 1d7b 	CALL __ADDD12
000e18 91af      	POP  R26
000e19 91bf      	POP  R27
000e1a 940e 1e04 	CALL __PUTDP1
                 ; 0001 0383                 break;
000e1c c007      	RJMP _0x200D6
                 ; 0001 0384             }
                 ; 0001 0385             else
                 _0x200D7:
                 ; 0001 0386             {
                 ; 0001 0387 failed_q10:     #asm("wdr");
000e1d 95a8      	wdr
                 ; 0001 0388                 senderr("#retry_q10\n");
                +
000e1e eda2     +LDI R26 , LOW ( 2 * _0x20000 + ( 596 ) )
000e1f e0b3     +LDI R27 , HIGH ( 2 * _0x20000 + ( 596 ) )
                 	__POINTW2FN _0x20000,596
000e20 940e 07ae 	CALL _senderr
                 ; 0001 0389             }
                 ; 0001 038A         }
000e22 5f1f      	SUBI R17,-1
000e23 cfcc      	RJMP _0x200D5
                 _0x200D6:
                 ; 0001 038B         if(iretry==3)
000e24 3013      	CPI  R17,3
000e25 f429      	BRNE _0x200DA
                 ; 0001 038C         {
                 ; 0001 038D             senderr("#failed_q10->c2_fail\n");
                +
000e26 edae     +LDI R26 , LOW ( 2 * _0x20000 + ( 608 ) )
000e27 e0b3     +LDI R27 , HIGH ( 2 * _0x20000 + ( 608 ) )
                 	__POINTW2FN _0x20000,608
000e28 940e 07ae 	CALL _senderr
                 ; 0001 038E             ic2=0;
000e2a c245      	RJMP _0x201DC
                 ; 0001 038F             memset(&c2,0,sizeof(struct DMED301));    //clear param_set
                 ; 0001 0390             goto param_set3;
                 ; 0001 0391         }
                 ; 0001 0392 
                 ; 0001 0393         strcpyf(msg,":020300190002E0\r\n");
                 _0x200DA:
000e2b e5ee      	LDI  R30,LOW(_msg)
000e2c e0f2      	LDI  R31,HIGH(_msg)
000e2d 93fa      	ST   -Y,R31
000e2e 93ea      	ST   -Y,R30
                +
000e2f efa4     +LDI R26 , LOW ( 2 * _0x20000 + ( 630 ) )
000e30 e0b3     +LDI R27 , HIGH ( 2 * _0x20000 + ( 630 ) )
                 	__POINTW2FN _0x20000,630
000e31 940e 1cf2 	CALL _strcpyf
                 ; 0001 0394         for(iretry=0; iretry<3; iretry++)
000e33 e010      	LDI  R17,LOW(0)
                 _0x200DC:
000e34 3013      	CPI  R17,3
000e35 f590      	BRSH _0x200DD
                 ; 0001 0395         {
                 ; 0001 0396             if(!ask_listen_validate03(2))
000e36 e0a2      	LDI  R26,LOW(2)
000e37 940e 0803 	CALL _ask_listen_validate03
000e39 30e0      	CPI  R30,0
000e3a f531      	BRNE _0x200DE
                 ; 0001 0397             {
                 ; 0001 0398                 c2.Q1 += val/5;
000e3b 01fe      	MOVW R30,R28
000e3c 59ea      	SUBI R30,LOW(-(102))
000e3d 4fff      	SBCI R31,HIGH(-(102))
000e3e 9678      	ADIW R30,24
000e3f 93ff      	PUSH R31
000e40 93ef      	PUSH R30
000e41 01df      	MOVW R26,R30
000e42 940e 1dfe 	CALL __GETD1P
000e44 937f      	PUSH R23
000e45 936f      	PUSH R22
000e46 93ff      	PUSH R31
000e47 93ef      	PUSH R30
000e48 91a0 02e1 	LDS  R26,_val
000e4a 91b0 02e2 	LDS  R27,_val+1
000e4c 9180 02e3 	LDS  R24,_val+2
000e4e 9190 02e4 	LDS  R25,_val+3
                +
000e50 e0e5     +LDI R30 , LOW ( 0x5 )
000e51 e0f0     +LDI R31 , HIGH ( 0x5 )
000e52 e060     +LDI R22 , BYTE3 ( 0x5 )
000e53 e070     +LDI R23 , BYTE4 ( 0x5 )
                 	__GETD1N 0x5
000e54 940e 1dd1 	CALL __DIVD21U
000e56 91af      	POP  R26
000e57 91bf      	POP  R27
000e58 918f      	POP  R24
000e59 919f      	POP  R25
000e5a 940e 1d7b 	CALL __ADDD12
000e5c 91af      	POP  R26
000e5d 91bf      	POP  R27
000e5e 940e 1e04 	CALL __PUTDP1
                 ; 0001 0399                 break;
000e60 c007      	RJMP _0x200DD
                 ; 0001 039A             }
                 ; 0001 039B             else
                 _0x200DE:
                 ; 0001 039C             {
                 ; 0001 039D failed_q11:     #asm("wdr");
000e61 95a8      	wdr
                 ; 0001 039E                 senderr("#retry_q11\n");
                +
000e62 e0a6     +LDI R26 , LOW ( 2 * _0x20000 + ( 648 ) )
000e63 e0b4     +LDI R27 , HIGH ( 2 * _0x20000 + ( 648 ) )
                 	__POINTW2FN _0x20000,648
000e64 940e 07ae 	CALL _senderr
                 ; 0001 039F             }
                 ; 0001 03A0         }
000e66 5f1f      	SUBI R17,-1
000e67 cfcc      	RJMP _0x200DC
                 _0x200DD:
                 ; 0001 03A1         if(iretry==3)
000e68 3013      	CPI  R17,3
000e69 f429      	BRNE _0x200E1
                 ; 0001 03A2         {
                 ; 0001 03A3             senderr("#failed_q11->c2_fail\n");
                +
000e6a e1a2     +LDI R26 , LOW ( 2 * _0x20000 + ( 660 ) )
000e6b e0b4     +LDI R27 , HIGH ( 2 * _0x20000 + ( 660 ) )
                 	__POINTW2FN _0x20000,660
000e6c 940e 07ae 	CALL _senderr
                 ; 0001 03A4             ic2=0;
000e6e c201      	RJMP _0x201DC
                 ; 0001 03A5             memset(&c2,0,sizeof(struct DMED301));    //clear param_set
                 ; 0001 03A6             goto param_set3;
                 ; 0001 03A7         }
                 ; 0001 03A8 
                 ; 0001 03A9         strcpyf(msg,":0203001B0002DE\r\n");
                 _0x200E1:
000e6f e5ee      	LDI  R30,LOW(_msg)
000e70 e0f2      	LDI  R31,HIGH(_msg)
000e71 93fa      	ST   -Y,R31
000e72 93ea      	ST   -Y,R30
                +
000e73 e2a8     +LDI R26 , LOW ( 2 * _0x20000 + ( 682 ) )
000e74 e0b4     +LDI R27 , HIGH ( 2 * _0x20000 + ( 682 ) )
                 	__POINTW2FN _0x20000,682
000e75 940e 1cf2 	CALL _strcpyf
                 ; 0001 03AA         for(iretry=0; iretry<3; iretry++)
000e77 e010      	LDI  R17,LOW(0)
                 _0x200E3:
000e78 3013      	CPI  R17,3
000e79 f590      	BRSH _0x200E4
                 ; 0001 03AB         {
                 ; 0001 03AC             if(!ask_listen_validate03(2))
000e7a e0a2      	LDI  R26,LOW(2)
000e7b 940e 0803 	CALL _ask_listen_validate03
000e7d 30e0      	CPI  R30,0
000e7e f531      	BRNE _0x200E5
                 ; 0001 03AD             {
                 ; 0001 03AE                 c2.Q2 += val/5;
000e7f 01fe      	MOVW R30,R28
000e80 59ea      	SUBI R30,LOW(-(102))
000e81 4fff      	SBCI R31,HIGH(-(102))
000e82 967c      	ADIW R30,28
000e83 93ff      	PUSH R31
000e84 93ef      	PUSH R30
000e85 01df      	MOVW R26,R30
000e86 940e 1dfe 	CALL __GETD1P
000e88 937f      	PUSH R23
000e89 936f      	PUSH R22
000e8a 93ff      	PUSH R31
000e8b 93ef      	PUSH R30
000e8c 91a0 02e1 	LDS  R26,_val
000e8e 91b0 02e2 	LDS  R27,_val+1
000e90 9180 02e3 	LDS  R24,_val+2
000e92 9190 02e4 	LDS  R25,_val+3
                +
000e94 e0e5     +LDI R30 , LOW ( 0x5 )
000e95 e0f0     +LDI R31 , HIGH ( 0x5 )
000e96 e060     +LDI R22 , BYTE3 ( 0x5 )
000e97 e070     +LDI R23 , BYTE4 ( 0x5 )
                 	__GETD1N 0x5
000e98 940e 1dd1 	CALL __DIVD21U
000e9a 91af      	POP  R26
000e9b 91bf      	POP  R27
000e9c 918f      	POP  R24
000e9d 919f      	POP  R25
000e9e 940e 1d7b 	CALL __ADDD12
000ea0 91af      	POP  R26
000ea1 91bf      	POP  R27
000ea2 940e 1e04 	CALL __PUTDP1
                 ; 0001 03AF                 break;
000ea4 c007      	RJMP _0x200E4
                 ; 0001 03B0             }
                 ; 0001 03B1             else
                 _0x200E5:
                 ; 0001 03B2             {
                 ; 0001 03B3 failed_q12:     #asm("wdr");
000ea5 95a8      	wdr
                 ; 0001 03B4                 senderr("#retry_q12\n");
                +
000ea6 e3aa     +LDI R26 , LOW ( 2 * _0x20000 + ( 700 ) )
000ea7 e0b4     +LDI R27 , HIGH ( 2 * _0x20000 + ( 700 ) )
                 	__POINTW2FN _0x20000,700
000ea8 940e 07ae 	CALL _senderr
                 ; 0001 03B5             }
                 ; 0001 03B6         }
000eaa 5f1f      	SUBI R17,-1
000eab cfcc      	RJMP _0x200E3
                 _0x200E4:
                 ; 0001 03B7         if(iretry==3)
000eac 3013      	CPI  R17,3
000ead f429      	BRNE _0x200E8
                 ; 0001 03B8         {
                 ; 0001 03B9             senderr("#failed_q12->c2_fail\n");
                +
000eae e4a6     +LDI R26 , LOW ( 2 * _0x20000 + ( 712 ) )
000eaf e0b4     +LDI R27 , HIGH ( 2 * _0x20000 + ( 712 ) )
                 	__POINTW2FN _0x20000,712
000eb0 940e 07ae 	CALL _senderr
                 ; 0001 03BA             ic2=0;
000eb2 c1bd      	RJMP _0x201DC
                 ; 0001 03BB             memset(&c2,0,sizeof(struct DMED301));    //clear param_set
                 ; 0001 03BC             goto param_set3;
                 ; 0001 03BD         }
                 ; 0001 03BE 
                 ; 0001 03BF         strcpyf(msg,":0203001D0002DC\r\n");
                 _0x200E8:
000eb3 e5ee      	LDI  R30,LOW(_msg)
000eb4 e0f2      	LDI  R31,HIGH(_msg)
000eb5 93fa      	ST   -Y,R31
000eb6 93ea      	ST   -Y,R30
                +
000eb7 e5ac     +LDI R26 , LOW ( 2 * _0x20000 + ( 734 ) )
000eb8 e0b4     +LDI R27 , HIGH ( 2 * _0x20000 + ( 734 ) )
                 	__POINTW2FN _0x20000,734
000eb9 940e 1cf2 	CALL _strcpyf
                 ; 0001 03C0         for(iretry=0; iretry<3; iretry++)
000ebb e010      	LDI  R17,LOW(0)
                 _0x200EA:
000ebc 3013      	CPI  R17,3
000ebd f590      	BRSH _0x200EB
                 ; 0001 03C1         {
                 ; 0001 03C2             if(!ask_listen_validate03(2))
000ebe e0a2      	LDI  R26,LOW(2)
000ebf 940e 0803 	CALL _ask_listen_validate03
000ec1 30e0      	CPI  R30,0
000ec2 f531      	BRNE _0x200EC
                 ; 0001 03C3             {
                 ; 0001 03C4                 c2.Q3 += val/5;
000ec3 01fe      	MOVW R30,R28
000ec4 59ea      	SUBI R30,LOW(-(102))
000ec5 4fff      	SBCI R31,HIGH(-(102))
000ec6 96b0      	ADIW R30,32
000ec7 93ff      	PUSH R31
000ec8 93ef      	PUSH R30
000ec9 01df      	MOVW R26,R30
000eca 940e 1dfe 	CALL __GETD1P
000ecc 937f      	PUSH R23
000ecd 936f      	PUSH R22
000ece 93ff      	PUSH R31
000ecf 93ef      	PUSH R30
000ed0 91a0 02e1 	LDS  R26,_val
000ed2 91b0 02e2 	LDS  R27,_val+1
000ed4 9180 02e3 	LDS  R24,_val+2
000ed6 9190 02e4 	LDS  R25,_val+3
                +
000ed8 e0e5     +LDI R30 , LOW ( 0x5 )
000ed9 e0f0     +LDI R31 , HIGH ( 0x5 )
000eda e060     +LDI R22 , BYTE3 ( 0x5 )
000edb e070     +LDI R23 , BYTE4 ( 0x5 )
                 	__GETD1N 0x5
000edc 940e 1dd1 	CALL __DIVD21U
000ede 91af      	POP  R26
000edf 91bf      	POP  R27
000ee0 918f      	POP  R24
000ee1 919f      	POP  R25
000ee2 940e 1d7b 	CALL __ADDD12
000ee4 91af      	POP  R26
000ee5 91bf      	POP  R27
000ee6 940e 1e04 	CALL __PUTDP1
                 ; 0001 03C5                 break;
000ee8 c007      	RJMP _0x200EB
                 ; 0001 03C6             }
                 ; 0001 03C7             else
                 _0x200EC:
                 ; 0001 03C8             {
                 ; 0001 03C9 failed_q13:     #asm("wdr");
000ee9 95a8      	wdr
                 ; 0001 03CA                 senderr("#retry_q13\n");
                +
000eea e6ae     +LDI R26 , LOW ( 2 * _0x20000 + ( 752 ) )
000eeb e0b4     +LDI R27 , HIGH ( 2 * _0x20000 + ( 752 ) )
                 	__POINTW2FN _0x20000,752
000eec 940e 07ae 	CALL _senderr
                 ; 0001 03CB             }
                 ; 0001 03CC         }
000eee 5f1f      	SUBI R17,-1
000eef cfcc      	RJMP _0x200EA
                 _0x200EB:
                 ; 0001 03CD         if(iretry==3)
000ef0 3013      	CPI  R17,3
000ef1 f429      	BRNE _0x200EF
                 ; 0001 03CE         {
                 ; 0001 03CF             senderr("#failed_q13->c2_fail\n");
                +
000ef2 e7aa     +LDI R26 , LOW ( 2 * _0x20000 + ( 764 ) )
000ef3 e0b4     +LDI R27 , HIGH ( 2 * _0x20000 + ( 764 ) )
                 	__POINTW2FN _0x20000,764
000ef4 940e 07ae 	CALL _senderr
                 ; 0001 03D0             ic2=0;
000ef6 c179      	RJMP _0x201DC
                 ; 0001 03D1             memset(&c2,0,sizeof(struct DMED301));    //clear param_set
                 ; 0001 03D2             goto param_set3;
                 ; 0001 03D3         }
                 ; 0001 03D4 
                 ; 0001 03D5         strcpyf(msg,":0203001F0002DA\r\n");
                 _0x200EF:
000ef7 e5ee      	LDI  R30,LOW(_msg)
000ef8 e0f2      	LDI  R31,HIGH(_msg)
000ef9 93fa      	ST   -Y,R31
000efa 93ea      	ST   -Y,R30
                +
000efb e9a0     +LDI R26 , LOW ( 2 * _0x20000 + ( 786 ) )
000efc e0b4     +LDI R27 , HIGH ( 2 * _0x20000 + ( 786 ) )
                 	__POINTW2FN _0x20000,786
000efd 940e 1cf2 	CALL _strcpyf
                 ; 0001 03D6         for(iretry=0; iretry<3; iretry++)
000eff e010      	LDI  R17,LOW(0)
                 _0x200F1:
000f00 3013      	CPI  R17,3
000f01 f590      	BRSH _0x200F2
                 ; 0001 03D7         {
                 ; 0001 03D8             if(!ask_listen_validate03(2))
000f02 e0a2      	LDI  R26,LOW(2)
000f03 940e 0803 	CALL _ask_listen_validate03
000f05 30e0      	CPI  R30,0
000f06 f531      	BRNE _0x200F3
                 ; 0001 03D9             {
                 ; 0001 03DA                 c2.S1 += val/5;
000f07 01fe      	MOVW R30,R28
000f08 59ea      	SUBI R30,LOW(-(102))
000f09 4fff      	SBCI R31,HIGH(-(102))
000f0a 96b4      	ADIW R30,36
000f0b 93ff      	PUSH R31
000f0c 93ef      	PUSH R30
000f0d 01df      	MOVW R26,R30
000f0e 940e 1dfe 	CALL __GETD1P
000f10 937f      	PUSH R23
000f11 936f      	PUSH R22
000f12 93ff      	PUSH R31
000f13 93ef      	PUSH R30
000f14 91a0 02e1 	LDS  R26,_val
000f16 91b0 02e2 	LDS  R27,_val+1
000f18 9180 02e3 	LDS  R24,_val+2
000f1a 9190 02e4 	LDS  R25,_val+3
                +
000f1c e0e5     +LDI R30 , LOW ( 0x5 )
000f1d e0f0     +LDI R31 , HIGH ( 0x5 )
000f1e e060     +LDI R22 , BYTE3 ( 0x5 )
000f1f e070     +LDI R23 , BYTE4 ( 0x5 )
                 	__GETD1N 0x5
000f20 940e 1dd1 	CALL __DIVD21U
000f22 91af      	POP  R26
000f23 91bf      	POP  R27
000f24 918f      	POP  R24
000f25 919f      	POP  R25
000f26 940e 1d7b 	CALL __ADDD12
000f28 91af      	POP  R26
000f29 91bf      	POP  R27
000f2a 940e 1e04 	CALL __PUTDP1
                 ; 0001 03DB                 break;
000f2c c007      	RJMP _0x200F2
                 ; 0001 03DC             }
                 ; 0001 03DD             else
                 _0x200F3:
                 ; 0001 03DE             {
                 ; 0001 03DF failed_q14:     #asm("wdr");
000f2d 95a8      	wdr
                 ; 0001 03E0                 senderr("#retry_q14\n");
                +
000f2e eaa2     +LDI R26 , LOW ( 2 * _0x20000 + ( 804 ) )
000f2f e0b4     +LDI R27 , HIGH ( 2 * _0x20000 + ( 804 ) )
                 	__POINTW2FN _0x20000,804
000f30 940e 07ae 	CALL _senderr
                 ; 0001 03E1             }
                 ; 0001 03E2         }
000f32 5f1f      	SUBI R17,-1
000f33 cfcc      	RJMP _0x200F1
                 _0x200F2:
                 ; 0001 03E3         if(iretry==3)
000f34 3013      	CPI  R17,3
000f35 f429      	BRNE _0x200F6
                 ; 0001 03E4         {
                 ; 0001 03E5             senderr("#failed_q14->c2_fail\n");
                +
000f36 eaae     +LDI R26 , LOW ( 2 * _0x20000 + ( 816 ) )
000f37 e0b4     +LDI R27 , HIGH ( 2 * _0x20000 + ( 816 ) )
                 	__POINTW2FN _0x20000,816
000f38 940e 07ae 	CALL _senderr
                 ; 0001 03E6             ic2=0;
000f3a c135      	RJMP _0x201DC
                 ; 0001 03E7             memset(&c2,0,sizeof(struct DMED301));    //clear param_set
                 ; 0001 03E8             goto param_set3;
                 ; 0001 03E9         }
                 ; 0001 03EA 
                 ; 0001 03EB         strcpyf(msg,":020300210002D8\r\n");
                 _0x200F6:
000f3b e5ee      	LDI  R30,LOW(_msg)
000f3c e0f2      	LDI  R31,HIGH(_msg)
000f3d 93fa      	ST   -Y,R31
000f3e 93ea      	ST   -Y,R30
                +
000f3f eca4     +LDI R26 , LOW ( 2 * _0x20000 + ( 838 ) )
000f40 e0b4     +LDI R27 , HIGH ( 2 * _0x20000 + ( 838 ) )
                 	__POINTW2FN _0x20000,838
000f41 940e 1cf2 	CALL _strcpyf
                 ; 0001 03EC         for(iretry=0; iretry<3; iretry++)
000f43 e010      	LDI  R17,LOW(0)
                 _0x200F8:
000f44 3013      	CPI  R17,3
000f45 f590      	BRSH _0x200F9
                 ; 0001 03ED         {
                 ; 0001 03EE             if(!ask_listen_validate03(2))
000f46 e0a2      	LDI  R26,LOW(2)
000f47 940e 0803 	CALL _ask_listen_validate03
000f49 30e0      	CPI  R30,0
000f4a f531      	BRNE _0x200FA
                 ; 0001 03EF             {
                 ; 0001 03F0                 c2.S2 += val/5;
000f4b 01fe      	MOVW R30,R28
000f4c 59ea      	SUBI R30,LOW(-(102))
000f4d 4fff      	SBCI R31,HIGH(-(102))
000f4e 96b8      	ADIW R30,40
000f4f 93ff      	PUSH R31
000f50 93ef      	PUSH R30
000f51 01df      	MOVW R26,R30
000f52 940e 1dfe 	CALL __GETD1P
000f54 937f      	PUSH R23
000f55 936f      	PUSH R22
000f56 93ff      	PUSH R31
000f57 93ef      	PUSH R30
000f58 91a0 02e1 	LDS  R26,_val
000f5a 91b0 02e2 	LDS  R27,_val+1
000f5c 9180 02e3 	LDS  R24,_val+2
000f5e 9190 02e4 	LDS  R25,_val+3
                +
000f60 e0e5     +LDI R30 , LOW ( 0x5 )
000f61 e0f0     +LDI R31 , HIGH ( 0x5 )
000f62 e060     +LDI R22 , BYTE3 ( 0x5 )
000f63 e070     +LDI R23 , BYTE4 ( 0x5 )
                 	__GETD1N 0x5
000f64 940e 1dd1 	CALL __DIVD21U
000f66 91af      	POP  R26
000f67 91bf      	POP  R27
000f68 918f      	POP  R24
000f69 919f      	POP  R25
000f6a 940e 1d7b 	CALL __ADDD12
000f6c 91af      	POP  R26
000f6d 91bf      	POP  R27
000f6e 940e 1e04 	CALL __PUTDP1
                 ; 0001 03F1                 break;
000f70 c007      	RJMP _0x200F9
                 ; 0001 03F2             }
                 ; 0001 03F3             else
                 _0x200FA:
                 ; 0001 03F4             {
                 ; 0001 03F5 failed_q15:     #asm("wdr");
000f71 95a8      	wdr
                 ; 0001 03F6                 senderr("#retry_q15\n");
                +
000f72 eda6     +LDI R26 , LOW ( 2 * _0x20000 + ( 856 ) )
000f73 e0b4     +LDI R27 , HIGH ( 2 * _0x20000 + ( 856 ) )
                 	__POINTW2FN _0x20000,856
000f74 940e 07ae 	CALL _senderr
                 ; 0001 03F7             }
                 ; 0001 03F8         }
000f76 5f1f      	SUBI R17,-1
000f77 cfcc      	RJMP _0x200F8
                 _0x200F9:
                 ; 0001 03F9         if(iretry==3)
000f78 3013      	CPI  R17,3
000f79 f429      	BRNE _0x200FD
                 ; 0001 03FA         {
                 ; 0001 03FB             senderr("#failed_q15->c2_fail\n");
                +
000f7a eea2     +LDI R26 , LOW ( 2 * _0x20000 + ( 868 ) )
000f7b e0b4     +LDI R27 , HIGH ( 2 * _0x20000 + ( 868 ) )
                 	__POINTW2FN _0x20000,868
000f7c 940e 07ae 	CALL _senderr
                 ; 0001 03FC             ic2=0;
000f7e c0f1      	RJMP _0x201DC
                 ; 0001 03FD             memset(&c2,0,sizeof(struct DMED301));    //clear param_set
                 ; 0001 03FE             goto param_set3;
                 ; 0001 03FF         }
                 ; 0001 0400 
                 ; 0001 0401         strcpyf(msg,":020300230002D6\r\n");
                 _0x200FD:
000f7f e5ee      	LDI  R30,LOW(_msg)
000f80 e0f2      	LDI  R31,HIGH(_msg)
000f81 93fa      	ST   -Y,R31
000f82 93ea      	ST   -Y,R30
                +
000f83 efa8     +LDI R26 , LOW ( 2 * _0x20000 + ( 890 ) )
000f84 e0b4     +LDI R27 , HIGH ( 2 * _0x20000 + ( 890 ) )
                 	__POINTW2FN _0x20000,890
000f85 940e 1cf2 	CALL _strcpyf
                 ; 0001 0402         for(iretry=0; iretry<3; iretry++)
000f87 e010      	LDI  R17,LOW(0)
                 _0x200FF:
000f88 3013      	CPI  R17,3
000f89 f590      	BRSH _0x20100
                 ; 0001 0403         {
                 ; 0001 0404             if(!ask_listen_validate03(2))
000f8a e0a2      	LDI  R26,LOW(2)
000f8b 940e 0803 	CALL _ask_listen_validate03
000f8d 30e0      	CPI  R30,0
000f8e f531      	BRNE _0x20101
                 ; 0001 0405             {
                 ; 0001 0406                 c2.S3 += val/5;
000f8f 01fe      	MOVW R30,R28
000f90 59ea      	SUBI R30,LOW(-(102))
000f91 4fff      	SBCI R31,HIGH(-(102))
000f92 96bc      	ADIW R30,44
000f93 93ff      	PUSH R31
000f94 93ef      	PUSH R30
000f95 01df      	MOVW R26,R30
000f96 940e 1dfe 	CALL __GETD1P
000f98 937f      	PUSH R23
000f99 936f      	PUSH R22
000f9a 93ff      	PUSH R31
000f9b 93ef      	PUSH R30
000f9c 91a0 02e1 	LDS  R26,_val
000f9e 91b0 02e2 	LDS  R27,_val+1
000fa0 9180 02e3 	LDS  R24,_val+2
000fa2 9190 02e4 	LDS  R25,_val+3
                +
000fa4 e0e5     +LDI R30 , LOW ( 0x5 )
000fa5 e0f0     +LDI R31 , HIGH ( 0x5 )
000fa6 e060     +LDI R22 , BYTE3 ( 0x5 )
000fa7 e070     +LDI R23 , BYTE4 ( 0x5 )
                 	__GETD1N 0x5
000fa8 940e 1dd1 	CALL __DIVD21U
000faa 91af      	POP  R26
000fab 91bf      	POP  R27
000fac 918f      	POP  R24
000fad 919f      	POP  R25
000fae 940e 1d7b 	CALL __ADDD12
000fb0 91af      	POP  R26
000fb1 91bf      	POP  R27
000fb2 940e 1e04 	CALL __PUTDP1
                 ; 0001 0407                 break;
000fb4 c007      	RJMP _0x20100
                 ; 0001 0408             }
                 ; 0001 0409             else
                 _0x20101:
                 ; 0001 040A             {
                 ; 0001 040B failed_q16:     #asm("wdr");
000fb5 95a8      	wdr
                 ; 0001 040C                 senderr("#retry_q16\n");
                +
000fb6 e0aa     +LDI R26 , LOW ( 2 * _0x20000 + ( 908 ) )
000fb7 e0b5     +LDI R27 , HIGH ( 2 * _0x20000 + ( 908 ) )
                 	__POINTW2FN _0x20000,908
000fb8 940e 07ae 	CALL _senderr
                 ; 0001 040D             }
                 ; 0001 040E         }
000fba 5f1f      	SUBI R17,-1
000fbb cfcc      	RJMP _0x200FF
                 _0x20100:
                 ; 0001 040F         if(iretry==3)
000fbc 3013      	CPI  R17,3
000fbd f429      	BRNE _0x20104
                 ; 0001 0410         {
                 ; 0001 0411             senderr("#failed_q16->c2_fail\n");
                +
000fbe e1a6     +LDI R26 , LOW ( 2 * _0x20000 + ( 920 ) )
000fbf e0b5     +LDI R27 , HIGH ( 2 * _0x20000 + ( 920 ) )
                 	__POINTW2FN _0x20000,920
000fc0 940e 07ae 	CALL _senderr
                 ; 0001 0412             ic2=0;
000fc2 c0ad      	RJMP _0x201DC
                 ; 0001 0413             memset(&c2,0,sizeof(struct DMED301));    //clear param_set
                 ; 0001 0414             goto param_set3;
                 ; 0001 0415         }
                 ; 0001 0416 
                 ; 0001 0417 
                 ; 0001 0418 
                 ; 0001 0419         if(++ic2==5)    // 5 values acquired, insert obtained mean
                 _0x20104:
000fc3 5f3f      	SUBI R19,-LOW(1)
000fc4 3035      	CPI  R19,5
000fc5 f009      	BREQ PC+2
000fc6 c0b5      	RJMP _0x20105
                 ; 0001 041A         {
                 ; 0001 041B             sprintf(msg,"CALL insert_em2(%ld,%ld,", c2.I1, c2.I2);
000fc7 e5ee      	LDI  R30,LOW(_msg)
000fc8 e0f2      	LDI  R31,HIGH(_msg)
000fc9 93fa      	ST   -Y,R31
000fca 93ea      	ST   -Y,R30
                +
000fcb e2ec     +LDI R30 , LOW ( 2 * _0x20000 + ( 942 ) )
000fcc e0f5     +LDI R31 , HIGH ( 2 * _0x20000 + ( 942 ) )
                 	__POINTW1FN _0x20000,942
000fcd 93fa      	ST   -Y,R31
000fce 93ea      	ST   -Y,R30
                +
000fcf 01fe     +MOVW R30 , R28
000fd0 59e6     +SUBI R30 , LOW ( - 106 )
000fd1 4fff     +SBCI R31 , HIGH ( - 106 )
000fd2 9001     +LD R0 , Z +
000fd3 9011     +LD R1 , Z +
000fd4 9161     +LD R22 , Z +
000fd5 8170     +LD R23 , Z
000fd6 01f0     +MOVW R30 , R0
                 	__GETD1SX 106
000fd7 940e 1e0b 	CALL __PUTPARD1
000fd9 01fe      	MOVW R30,R28
000fda 59e2      	SUBI R30,LOW(-(110))
000fdb 4fff      	SBCI R31,HIGH(-(110))
000fdc 9634      	ADIW R30,4
000fdd 01df      	MOVW R26,R30
000fde 940e 1dfe 	CALL __GETD1P
000fe0 940e 1e0b 	CALL __PUTPARD1
000fe2 e088      	LDI  R24,8
000fe3 940e 1a9b 	CALL _sprintf
000fe5 962c      	ADIW R28,12
                 ; 0001 041C             sendqry();
000fe6 940e 07eb 	CALL _sendqry
                 ; 0001 041D             #asm("wdr");
000fe8 95a8      	wdr
                 ; 0001 041E             sprintf(msg,"%ld,%ld,%ld,%ld,", c2.I3, c2.P1, c2.P2, c2.P3);
000fe9 e5ee      	LDI  R30,LOW(_msg)
000fea e0f2      	LDI  R31,HIGH(_msg)
000feb 93fa      	ST   -Y,R31
000fec 93ea      	ST   -Y,R30
                +
000fed e4e5     +LDI R30 , LOW ( 2 * _0x20000 + ( 967 ) )
000fee e0f5     +LDI R31 , HIGH ( 2 * _0x20000 + ( 967 ) )
                 	__POINTW1FN _0x20000,967
000fef 93fa      	ST   -Y,R31
000ff0 93ea      	ST   -Y,R30
000ff1 01fe      	MOVW R30,R28
000ff2 59e6      	SUBI R30,LOW(-(106))
000ff3 4fff      	SBCI R31,HIGH(-(106))
000ff4 9638      	ADIW R30,8
000ff5 01df      	MOVW R26,R30
000ff6 940e 1dfe 	CALL __GETD1P
000ff8 940e 1e0b 	CALL __PUTPARD1
000ffa 01fe      	MOVW R30,R28
000ffb 59e2      	SUBI R30,LOW(-(110))
000ffc 4fff      	SBCI R31,HIGH(-(110))
000ffd 963c      	ADIW R30,12
000ffe 01df      	MOVW R26,R30
000fff 940e 1dfe 	CALL __GETD1P
001001 940e 1e0b 	CALL __PUTPARD1
001003 01fe      	MOVW R30,R28
001004 58ee      	SUBI R30,LOW(-(114))
001005 4fff      	SBCI R31,HIGH(-(114))
001006 9670      	ADIW R30,16
001007 01df      	MOVW R26,R30
001008 940e 1dfe 	CALL __GETD1P
00100a 940e 1e0b 	CALL __PUTPARD1
00100c 01fe      	MOVW R30,R28
00100d 58ea      	SUBI R30,LOW(-(118))
00100e 4fff      	SBCI R31,HIGH(-(118))
00100f 9674      	ADIW R30,20
001010 01df      	MOVW R26,R30
001011 940e 1dfe 	CALL __GETD1P
001013 940e 1e0b 	CALL __PUTPARD1
001015 e180      	LDI  R24,16
001016 940e 1a9b 	CALL _sprintf
001018 9664      	ADIW R28,20
                 ; 0001 041F             sendqry();
001019 940e 07eb 	CALL _sendqry
                 ; 0001 0420             #asm("wdr");
00101b 95a8      	wdr
                 ; 0001 0421             sprintf(msg,"%ld,%ld,%ld,%ld,", c2.Q1, c2.Q2, c2.Q3, c2.S1);
00101c e5ee      	LDI  R30,LOW(_msg)
00101d e0f2      	LDI  R31,HIGH(_msg)
00101e 93fa      	ST   -Y,R31
00101f 93ea      	ST   -Y,R30
                +
001020 e4e5     +LDI R30 , LOW ( 2 * _0x20000 + ( 967 ) )
001021 e0f5     +LDI R31 , HIGH ( 2 * _0x20000 + ( 967 ) )
                 	__POINTW1FN _0x20000,967
001022 93fa      	ST   -Y,R31
001023 93ea      	ST   -Y,R30
001024 01fe      	MOVW R30,R28
001025 59e6      	SUBI R30,LOW(-(106))
001026 4fff      	SBCI R31,HIGH(-(106))
001027 9678      	ADIW R30,24
001028 01df      	MOVW R26,R30
001029 940e 1dfe 	CALL __GETD1P
00102b 940e 1e0b 	CALL __PUTPARD1
00102d 01fe      	MOVW R30,R28
00102e 59e2      	SUBI R30,LOW(-(110))
00102f 4fff      	SBCI R31,HIGH(-(110))
001030 967c      	ADIW R30,28
001031 01df      	MOVW R26,R30
001032 940e 1dfe 	CALL __GETD1P
001034 940e 1e0b 	CALL __PUTPARD1
001036 01fe      	MOVW R30,R28
001037 58ee      	SUBI R30,LOW(-(114))
001038 4fff      	SBCI R31,HIGH(-(114))
001039 96b0      	ADIW R30,32
00103a 01df      	MOVW R26,R30
00103b 940e 1dfe 	CALL __GETD1P
00103d 940e 1e0b 	CALL __PUTPARD1
00103f 01fe      	MOVW R30,R28
001040 58ea      	SUBI R30,LOW(-(118))
001041 4fff      	SBCI R31,HIGH(-(118))
001042 96b4      	ADIW R30,36
001043 01df      	MOVW R26,R30
001044 940e 1dfe 	CALL __GETD1P
001046 940e 1e0b 	CALL __PUTPARD1
001048 e180      	LDI  R24,16
001049 940e 1a9b 	CALL _sprintf
00104b 9664      	ADIW R28,20
                 ; 0001 0422             sendqry();
00104c 940e 07eb 	CALL _sendqry
                 ; 0001 0423             #asm("wdr");
00104e 95a8      	wdr
                 ; 0001 0424             sprintf(msg,"%ld,%ld);\n", c2.S2, c2.S3);
00104f e5ee      	LDI  R30,LOW(_msg)
001050 e0f2      	LDI  R31,HIGH(_msg)
001051 93fa      	ST   -Y,R31
001052 93ea      	ST   -Y,R30
                +
001053 ebeb     +LDI R30 , LOW ( 2 * _0x20000 + ( 317 ) )
001054 e0f2     +LDI R31 , HIGH ( 2 * _0x20000 + ( 317 ) )
                 	__POINTW1FN _0x20000,317
001055 93fa      	ST   -Y,R31
001056 93ea      	ST   -Y,R30
001057 01fe      	MOVW R30,R28
001058 59e6      	SUBI R30,LOW(-(106))
001059 4fff      	SBCI R31,HIGH(-(106))
00105a 96b8      	ADIW R30,40
00105b 01df      	MOVW R26,R30
00105c 940e 1dfe 	CALL __GETD1P
00105e 940e 1e0b 	CALL __PUTPARD1
001060 01fe      	MOVW R30,R28
001061 59e2      	SUBI R30,LOW(-(110))
001062 4fff      	SBCI R31,HIGH(-(110))
001063 96bc      	ADIW R30,44
001064 01df      	MOVW R26,R30
001065 940e 1dfe 	CALL __GETD1P
001067 940e 1e0b 	CALL __PUTPARD1
001069 e088      	LDI  R24,8
00106a 940e 1a9b 	CALL _sprintf
00106c 962c      	ADIW R28,12
                 ; 0001 0425             sendqry();
00106d 940e 07eb 	CALL _sendqry
                 ; 0001 0426             #asm("wdr");
00106f 95a8      	wdr
                 ; 0001 0427             ic2=0;
                 _0x201DC:
001070 e030      	LDI  R19,LOW(0)
                 ; 0001 0428             memset(&c2,0,sizeof(struct DMED301));    //clear param_set
001071 01fe      	MOVW R30,R28
001072 59ea      	SUBI R30,LOW(-(102))
001073 4fff      	SBCI R31,HIGH(-(102))
001074 93fa      	ST   -Y,R31
001075 93ea      	ST   -Y,R30
001076 e0e0      	LDI  R30,LOW(0)
001077 93ea      	ST   -Y,R30
001078 e3a0      	LDI  R26,LOW(48)
001079 e0b0      	LDI  R27,0
00107a 940e 1ce2 	CALL _memset
                 ; 0001 0429         }
                 ; 0001 042A 
                 ; 0001 042B 
                 ; 0001 042C param_set3:
                 _0x20105:
                 ; 0001 042D         strcpyf(msg,":030300070002F1\r\n");
00107c e5ee      	LDI  R30,LOW(_msg)
00107d e0f2      	LDI  R31,HIGH(_msg)
00107e 93fa      	ST   -Y,R31
00107f 93ea      	ST   -Y,R30
                +
001080 e5a6     +LDI R26 , LOW ( 2 * _0x20000 + ( 984 ) )
001081 e0b5     +LDI R27 , HIGH ( 2 * _0x20000 + ( 984 ) )
                 	__POINTW2FN _0x20000,984
001082 940e 1cf2 	CALL _strcpyf
                 ; 0001 042E         for(iretry=0; iretry<3; iretry++)
001084 e010      	LDI  R17,LOW(0)
                 _0x20107:
001085 3013      	CPI  R17,3
001086 f528      	BRSH _0x20108
                 ; 0001 042F         {
                 ; 0001 0430             if(!ask_listen_validate03(3))
001087 e0a3      	LDI  R26,LOW(3)
001088 940e 0803 	CALL _ask_listen_validate03
00108a 30e0      	CPI  R30,0
00108b f4c9      	BRNE _0x20109
                 ; 0001 0431             {
                 ; 0001 0432                 c3.I1 += val/5;
00108c 91a0 02e1 	LDS  R26,_val
00108e 91b0 02e2 	LDS  R27,_val+1
001090 9180 02e3 	LDS  R24,_val+2
001092 9190 02e4 	LDS  R25,_val+3
                +
001094 e0e5     +LDI R30 , LOW ( 0x5 )
001095 e0f0     +LDI R31 , HIGH ( 0x5 )
001096 e060     +LDI R22 , BYTE3 ( 0x5 )
001097 e070     +LDI R23 , BYTE4 ( 0x5 )
                 	__GETD1N 0x5
001098 940e 1dd1 	CALL __DIVD21U
                +
00109a a9ae     +LDD R26 , Y + 54
00109b a9bf     +LDD R27 , Y + 54 + 1
00109c ad88     +LDD R24 , Y + 54 + 2
00109d ad99     +LDD R25 , Y + 54 + 3
                 	__GETD2S 54
00109e 940e 1d7b 	CALL __ADDD12
                +
0010a0 abee     +STD Y + 54 , R30
0010a1 abff     +STD Y + 54 + 1 , R31
0010a2 af68     +STD Y + 54 + 2 , R22
0010a3 af79     +STD Y + 54 + 3 , R23
                 	__PUTD1S 54
                 ; 0001 0433                 break;
0010a4 c007      	RJMP _0x20108
                 ; 0001 0434             }
                 ; 0001 0435             else
                 _0x20109:
                 ; 0001 0436             {
                 ; 0001 0437 failed_q17:     #asm("wdr");
0010a5 95a8      	wdr
                 ; 0001 0438                 senderr("#retry_q17\n");
                +
0010a6 e6a8     +LDI R26 , LOW ( 2 * _0x20000 + ( 1002 ) )
0010a7 e0b5     +LDI R27 , HIGH ( 2 * _0x20000 + ( 1002 ) )
                 	__POINTW2FN _0x20000,1002
0010a8 940e 07ae 	CALL _senderr
                 ; 0001 0439             }
                 ; 0001 043A         }
0010aa 5f1f      	SUBI R17,-1
0010ab cfd9      	RJMP _0x20107
                 _0x20108:
                 ; 0001 043B         if(iretry==3)
0010ac 3013      	CPI  R17,3
0010ad f431      	BRNE _0x2010C
                 ; 0001 043C         {
                 ; 0001 043D             senderr("#failed_q17->c3_fail\n");
                +
0010ae e7a4     +LDI R26 , LOW ( 2 * _0x20000 + ( 1014 ) )
0010af e0b5     +LDI R27 , HIGH ( 2 * _0x20000 + ( 1014 ) )
                 	__POINTW2FN _0x20000,1014
0010b0 940e 07ae 	CALL _senderr
                 ; 0001 043E             ic3=0;
0010b2 940c 1428 	JMP  _0x201DD
                 ; 0001 043F             memset(&c3,0,sizeof(struct DMED301));    //clear param_set
                 ; 0001 0440             goto param_set4;
                 ; 0001 0441         }
                 ; 0001 0442 
                 ; 0001 0443         strcpyf(msg,":030300090002EF\r\n");
                 _0x2010C:
0010b4 e5ee      	LDI  R30,LOW(_msg)
0010b5 e0f2      	LDI  R31,HIGH(_msg)
0010b6 93fa      	ST   -Y,R31
0010b7 93ea      	ST   -Y,R30
                +
0010b8 e8aa     +LDI R26 , LOW ( 2 * _0x20000 + ( 1036 ) )
0010b9 e0b5     +LDI R27 , HIGH ( 2 * _0x20000 + ( 1036 ) )
                 	__POINTW2FN _0x20000,1036
0010ba 940e 1cf2 	CALL _strcpyf
                 ; 0001 0444         for(iretry=0; iretry<3; iretry++)
0010bc e010      	LDI  R17,LOW(0)
                 _0x2010F:
0010bd 3013      	CPI  R17,3
0010be f528      	BRSH _0x20110
                 ; 0001 0445         {
                 ; 0001 0446             if(!ask_listen_validate03(3))
0010bf e0a3      	LDI  R26,LOW(3)
0010c0 940e 0803 	CALL _ask_listen_validate03
0010c2 30e0      	CPI  R30,0
0010c3 f4c9      	BRNE _0x20111
                 ; 0001 0447             {
                 ; 0001 0448                 c3.I2 += val/5;
0010c4 91a0 02e1 	LDS  R26,_val
0010c6 91b0 02e2 	LDS  R27,_val+1
0010c8 9180 02e3 	LDS  R24,_val+2
0010ca 9190 02e4 	LDS  R25,_val+3
                +
0010cc e0e5     +LDI R30 , LOW ( 0x5 )
0010cd e0f0     +LDI R31 , HIGH ( 0x5 )
0010ce e060     +LDI R22 , BYTE3 ( 0x5 )
0010cf e070     +LDI R23 , BYTE4 ( 0x5 )
                 	__GETD1N 0x5
0010d0 940e 1dd1 	CALL __DIVD21U
                +
0010d2 adaa     +LDD R26 , Y + 58
0010d3 adbb     +LDD R27 , Y + 58 + 1
0010d4 ad8c     +LDD R24 , Y + 58 + 2
0010d5 ad9d     +LDD R25 , Y + 58 + 3
                 	__GETD2S 58
0010d6 940e 1d7b 	CALL __ADDD12
                +
0010d8 afea     +STD Y + 58 , R30
0010d9 affb     +STD Y + 58 + 1 , R31
0010da af6c     +STD Y + 58 + 2 , R22
0010db af7d     +STD Y + 58 + 3 , R23
                 	__PUTD1S 58
                 ; 0001 0449                 break;
0010dc c007      	RJMP _0x20110
                 ; 0001 044A             }
                 ; 0001 044B             else
                 _0x20111:
                 ; 0001 044C             {
                 ; 0001 044D failed_q18:     #asm("wdr");
0010dd 95a8      	wdr
                 ; 0001 044E                 senderr("#retry_q18\n");
                +
0010de e9ac     +LDI R26 , LOW ( 2 * _0x20000 + ( 1054 ) )
0010df e0b5     +LDI R27 , HIGH ( 2 * _0x20000 + ( 1054 ) )
                 	__POINTW2FN _0x20000,1054
0010e0 940e 07ae 	CALL _senderr
                 ; 0001 044F             }
                 ; 0001 0450         }
0010e2 5f1f      	SUBI R17,-1
0010e3 cfd9      	RJMP _0x2010F
                 _0x20110:
                 ; 0001 0451         if(iretry==3)
0010e4 3013      	CPI  R17,3
0010e5 f431      	BRNE _0x20114
                 ; 0001 0452         {
                 ; 0001 0453             senderr("#failed_q18->c3_fail\n");
                +
0010e6 eaa8     +LDI R26 , LOW ( 2 * _0x20000 + ( 1066 ) )
0010e7 e0b5     +LDI R27 , HIGH ( 2 * _0x20000 + ( 1066 ) )
                 	__POINTW2FN _0x20000,1066
0010e8 940e 07ae 	CALL _senderr
                 ; 0001 0454             ic3=0;
0010ea 940c 1428 	JMP  _0x201DD
                 ; 0001 0455             memset(&c3,0,sizeof(struct DMED301));    //clear param_set
                 ; 0001 0456             goto param_set4;
                 ; 0001 0457         }
                 ; 0001 0458 
                 ; 0001 0459         strcpyf(msg,":0303000B0002ED\r\n");
                 _0x20114:
0010ec e5ee      	LDI  R30,LOW(_msg)
0010ed e0f2      	LDI  R31,HIGH(_msg)
0010ee 93fa      	ST   -Y,R31
0010ef 93ea      	ST   -Y,R30
                +
0010f0 ebae     +LDI R26 , LOW ( 2 * _0x20000 + ( 1088 ) )
0010f1 e0b5     +LDI R27 , HIGH ( 2 * _0x20000 + ( 1088 ) )
                 	__POINTW2FN _0x20000,1088
0010f2 940e 1cf2 	CALL _strcpyf
                 ; 0001 045A         for(iretry=0; iretry<3; iretry++)
0010f4 e010      	LDI  R17,LOW(0)
                 _0x20116:
0010f5 3013      	CPI  R17,3
0010f6 f560      	BRSH _0x20117
                 ; 0001 045B         {
                 ; 0001 045C             if(!ask_listen_validate03(3))
0010f7 e0a3      	LDI  R26,LOW(3)
0010f8 940e 0803 	CALL _ask_listen_validate03
0010fa 30e0      	CPI  R30,0
0010fb f501      	BRNE _0x20118
                 ; 0001 045D             {
                 ; 0001 045E                 c3.I3 += val/5;
0010fc 91a0 02e1 	LDS  R26,_val
0010fe 91b0 02e2 	LDS  R27,_val+1
001100 9180 02e3 	LDS  R24,_val+2
001102 9190 02e4 	LDS  R25,_val+3
                +
001104 e0e5     +LDI R30 , LOW ( 0x5 )
001105 e0f0     +LDI R31 , HIGH ( 0x5 )
001106 e060     +LDI R22 , BYTE3 ( 0x5 )
001107 e070     +LDI R23 , BYTE4 ( 0x5 )
                 	__GETD1N 0x5
001108 940e 1dd1 	CALL __DIVD21U
                +
00110a 01de     +MOVW R26 , R28
00110b 5ca2     +SUBI R26 , LOW ( - 62 )
00110c 4fbf     +SBCI R27 , HIGH ( - 62 )
00110d 900d     +LD R0 , X +
00110e 901d     +LD R1 , X +
00110f 918d     +LD R24 , X +
001110 919c     +LD R25 , X
001111 01d0     +MOVW R26 , R0
                 	__GETD2SX 62
001112 940e 1d7b 	CALL __ADDD12
                +
001114 01de     +MOVW R26 , R28
001115 5ca2     +SUBI R26 , LOW ( - 62 )
001116 4fbf     +SBCI R27 , HIGH ( - 62 )
001117 93ed     +ST X + , R30
001118 93fd     +ST X + , R31
001119 936d     +ST X + , R22
00111a 937c     +ST X , R23
                 	__PUTD1SX 62
                 ; 0001 045F                 break;
00111b c007      	RJMP _0x20117
                 ; 0001 0460             }
                 ; 0001 0461             else
                 _0x20118:
                 ; 0001 0462             {
                 ; 0001 0463 failed_q19:     #asm("wdr");
00111c 95a8      	wdr
                 ; 0001 0464                 senderr("#retry_q19\n");
                +
00111d eda0     +LDI R26 , LOW ( 2 * _0x20000 + ( 1106 ) )
00111e e0b5     +LDI R27 , HIGH ( 2 * _0x20000 + ( 1106 ) )
                 	__POINTW2FN _0x20000,1106
00111f 940e 07ae 	CALL _senderr
                 ; 0001 0465             }
                 ; 0001 0466         }
001121 5f1f      	SUBI R17,-1
001122 cfd2      	RJMP _0x20116
                 _0x20117:
                 ; 0001 0467         if(iretry==3)
001123 3013      	CPI  R17,3
001124 f431      	BRNE _0x2011B
                 ; 0001 0468         {
                 ; 0001 0469             senderr("#failed_q19->c3_fail\n");
                +
001125 edac     +LDI R26 , LOW ( 2 * _0x20000 + ( 1118 ) )
001126 e0b5     +LDI R27 , HIGH ( 2 * _0x20000 + ( 1118 ) )
                 	__POINTW2FN _0x20000,1118
001127 940e 07ae 	CALL _senderr
                 ; 0001 046A             ic3=0;
001129 940c 1428 	JMP  _0x201DD
                 ; 0001 046B             memset(&c3,0,sizeof(struct DMED301));    //clear param_set
                 ; 0001 046C             goto param_set4;
                 ; 0001 046D         }
                 ; 0001 046E 
                 ; 0001 046F         strcpyf(msg,":030300130002E5\r\n");
                 _0x2011B:
00112b e5ee      	LDI  R30,LOW(_msg)
00112c e0f2      	LDI  R31,HIGH(_msg)
00112d 93fa      	ST   -Y,R31
00112e 93ea      	ST   -Y,R30
                +
00112f efa2     +LDI R26 , LOW ( 2 * _0x20000 + ( 1140 ) )
001130 e0b5     +LDI R27 , HIGH ( 2 * _0x20000 + ( 1140 ) )
                 	__POINTW2FN _0x20000,1140
001131 940e 1cf2 	CALL _strcpyf
                 ; 0001 0470         for(iretry=0; iretry<3; iretry++)
001133 e010      	LDI  R17,LOW(0)
                 _0x2011D:
001134 3013      	CPI  R17,3
001135 f588      	BRSH _0x2011E
                 ; 0001 0471         {
                 ; 0001 0472             if(!ask_listen_validate03(3))
001136 e0a3      	LDI  R26,LOW(3)
001137 940e 0803 	CALL _ask_listen_validate03
001139 30e0      	CPI  R30,0
00113a f529      	BRNE _0x2011F
                 ; 0001 0473             {
                 ; 0001 0474                 c3.P1 += val/5;
00113b 01fe      	MOVW R30,R28
00113c 96f6      	ADIW R30,54
00113d 963c      	ADIW R30,12
00113e 93ff      	PUSH R31
00113f 93ef      	PUSH R30
001140 01df      	MOVW R26,R30
001141 940e 1dfe 	CALL __GETD1P
001143 937f      	PUSH R23
001144 936f      	PUSH R22
001145 93ff      	PUSH R31
001146 93ef      	PUSH R30
001147 91a0 02e1 	LDS  R26,_val
001149 91b0 02e2 	LDS  R27,_val+1
00114b 9180 02e3 	LDS  R24,_val+2
00114d 9190 02e4 	LDS  R25,_val+3
                +
00114f e0e5     +LDI R30 , LOW ( 0x5 )
001150 e0f0     +LDI R31 , HIGH ( 0x5 )
001151 e060     +LDI R22 , BYTE3 ( 0x5 )
001152 e070     +LDI R23 , BYTE4 ( 0x5 )
                 	__GETD1N 0x5
001153 940e 1dd1 	CALL __DIVD21U
001155 91af      	POP  R26
001156 91bf      	POP  R27
001157 918f      	POP  R24
001158 919f      	POP  R25
001159 940e 1d7b 	CALL __ADDD12
00115b 91af      	POP  R26
00115c 91bf      	POP  R27
00115d 940e 1e04 	CALL __PUTDP1
                 ; 0001 0475                 break;
00115f c007      	RJMP _0x2011E
                 ; 0001 0476             }
                 ; 0001 0477             else
                 _0x2011F:
                 ; 0001 0478             {
                 ; 0001 0479 failed_q20:     #asm("wdr");
001160 95a8      	wdr
                 ; 0001 047A                 senderr("#retry_q20\n");
                +
001161 e0a4     +LDI R26 , LOW ( 2 * _0x20000 + ( 1158 ) )
001162 e0b6     +LDI R27 , HIGH ( 2 * _0x20000 + ( 1158 ) )
                 	__POINTW2FN _0x20000,1158
001163 940e 07ae 	CALL _senderr
                 ; 0001 047B             }
                 ; 0001 047C         }
001165 5f1f      	SUBI R17,-1
001166 cfcd      	RJMP _0x2011D
                 _0x2011E:
                 ; 0001 047D         if(iretry==3)
001167 3013      	CPI  R17,3
001168 f429      	BRNE _0x20122
                 ; 0001 047E         {
                 ; 0001 047F             senderr("#failed_q20->c3_fail\n");
                +
001169 e1a0     +LDI R26 , LOW ( 2 * _0x20000 + ( 1170 ) )
00116a e0b6     +LDI R27 , HIGH ( 2 * _0x20000 + ( 1170 ) )
                 	__POINTW2FN _0x20000,1170
00116b 940e 07ae 	CALL _senderr
                 ; 0001 0480             ic3=0;
00116d c2ba      	RJMP _0x201DD
                 ; 0001 0481             memset(&c3,0,sizeof(struct DMED301));    //clear param_set
                 ; 0001 0482             goto param_set4;
                 ; 0001 0483         }
                 ; 0001 0484 
                 ; 0001 0485         strcpyf(msg,":030300150002E3\r\n");
                 _0x20122:
00116e e5ee      	LDI  R30,LOW(_msg)
00116f e0f2      	LDI  R31,HIGH(_msg)
001170 93fa      	ST   -Y,R31
001171 93ea      	ST   -Y,R30
                +
001172 e2a6     +LDI R26 , LOW ( 2 * _0x20000 + ( 1192 ) )
001173 e0b6     +LDI R27 , HIGH ( 2 * _0x20000 + ( 1192 ) )
                 	__POINTW2FN _0x20000,1192
001174 940e 1cf2 	CALL _strcpyf
                 ; 0001 0486         for(iretry=0; iretry<3; iretry++)
001176 e010      	LDI  R17,LOW(0)
                 _0x20124:
001177 3013      	CPI  R17,3
001178 f588      	BRSH _0x20125
                 ; 0001 0487         {
                 ; 0001 0488             if(!ask_listen_validate03(3))
001179 e0a3      	LDI  R26,LOW(3)
00117a 940e 0803 	CALL _ask_listen_validate03
00117c 30e0      	CPI  R30,0
00117d f529      	BRNE _0x20126
                 ; 0001 0489             {
                 ; 0001 048A                 c3.P2 += val/5;
00117e 01fe      	MOVW R30,R28
00117f 96f6      	ADIW R30,54
001180 9670      	ADIW R30,16
001181 93ff      	PUSH R31
001182 93ef      	PUSH R30
001183 01df      	MOVW R26,R30
001184 940e 1dfe 	CALL __GETD1P
001186 937f      	PUSH R23
001187 936f      	PUSH R22
001188 93ff      	PUSH R31
001189 93ef      	PUSH R30
00118a 91a0 02e1 	LDS  R26,_val
00118c 91b0 02e2 	LDS  R27,_val+1
00118e 9180 02e3 	LDS  R24,_val+2
001190 9190 02e4 	LDS  R25,_val+3
                +
001192 e0e5     +LDI R30 , LOW ( 0x5 )
001193 e0f0     +LDI R31 , HIGH ( 0x5 )
001194 e060     +LDI R22 , BYTE3 ( 0x5 )
001195 e070     +LDI R23 , BYTE4 ( 0x5 )
                 	__GETD1N 0x5
001196 940e 1dd1 	CALL __DIVD21U
001198 91af      	POP  R26
001199 91bf      	POP  R27
00119a 918f      	POP  R24
00119b 919f      	POP  R25
00119c 940e 1d7b 	CALL __ADDD12
00119e 91af      	POP  R26
00119f 91bf      	POP  R27
0011a0 940e 1e04 	CALL __PUTDP1
                 ; 0001 048B                 break;
0011a2 c007      	RJMP _0x20125
                 ; 0001 048C             }
                 ; 0001 048D             else
                 _0x20126:
                 ; 0001 048E             {
                 ; 0001 048F failed_q21:     #asm("wdr");
0011a3 95a8      	wdr
                 ; 0001 0490                 senderr("#retry_q21\n");
                +
0011a4 e3a8     +LDI R26 , LOW ( 2 * _0x20000 + ( 1210 ) )
0011a5 e0b6     +LDI R27 , HIGH ( 2 * _0x20000 + ( 1210 ) )
                 	__POINTW2FN _0x20000,1210
0011a6 940e 07ae 	CALL _senderr
                 ; 0001 0491             }
                 ; 0001 0492         }
0011a8 5f1f      	SUBI R17,-1
0011a9 cfcd      	RJMP _0x20124
                 _0x20125:
                 ; 0001 0493         if(iretry==3)
0011aa 3013      	CPI  R17,3
0011ab f429      	BRNE _0x20129
                 ; 0001 0494         {
                 ; 0001 0495             senderr("#failed_q21->c3_fail\n");
                +
0011ac e4a4     +LDI R26 , LOW ( 2 * _0x20000 + ( 1222 ) )
0011ad e0b6     +LDI R27 , HIGH ( 2 * _0x20000 + ( 1222 ) )
                 	__POINTW2FN _0x20000,1222
0011ae 940e 07ae 	CALL _senderr
                 ; 0001 0496             ic3=0;
0011b0 c277      	RJMP _0x201DD
                 ; 0001 0497             memset(&c3,0,sizeof(struct DMED301));    //clear param_set
                 ; 0001 0498             goto param_set4;
                 ; 0001 0499         }
                 ; 0001 049A 
                 ; 0001 049B         strcpyf(msg,":030300170002E1\r\n");
                 _0x20129:
0011b1 e5ee      	LDI  R30,LOW(_msg)
0011b2 e0f2      	LDI  R31,HIGH(_msg)
0011b3 93fa      	ST   -Y,R31
0011b4 93ea      	ST   -Y,R30
                +
0011b5 e5aa     +LDI R26 , LOW ( 2 * _0x20000 + ( 1244 ) )
0011b6 e0b6     +LDI R27 , HIGH ( 2 * _0x20000 + ( 1244 ) )
                 	__POINTW2FN _0x20000,1244
0011b7 940e 1cf2 	CALL _strcpyf
                 ; 0001 049C         for(iretry=0; iretry<3; iretry++)
0011b9 e010      	LDI  R17,LOW(0)
                 _0x2012B:
0011ba 3013      	CPI  R17,3
0011bb f588      	BRSH _0x2012C
                 ; 0001 049D         {
                 ; 0001 049E             if(!ask_listen_validate03(3))
0011bc e0a3      	LDI  R26,LOW(3)
0011bd 940e 0803 	CALL _ask_listen_validate03
0011bf 30e0      	CPI  R30,0
0011c0 f529      	BRNE _0x2012D
                 ; 0001 049F             {
                 ; 0001 04A0                 c3.P3 += val/5;
0011c1 01fe      	MOVW R30,R28
0011c2 96f6      	ADIW R30,54
0011c3 9674      	ADIW R30,20
0011c4 93ff      	PUSH R31
0011c5 93ef      	PUSH R30
0011c6 01df      	MOVW R26,R30
0011c7 940e 1dfe 	CALL __GETD1P
0011c9 937f      	PUSH R23
0011ca 936f      	PUSH R22
0011cb 93ff      	PUSH R31
0011cc 93ef      	PUSH R30
0011cd 91a0 02e1 	LDS  R26,_val
0011cf 91b0 02e2 	LDS  R27,_val+1
0011d1 9180 02e3 	LDS  R24,_val+2
0011d3 9190 02e4 	LDS  R25,_val+3
                +
0011d5 e0e5     +LDI R30 , LOW ( 0x5 )
0011d6 e0f0     +LDI R31 , HIGH ( 0x5 )
0011d7 e060     +LDI R22 , BYTE3 ( 0x5 )
0011d8 e070     +LDI R23 , BYTE4 ( 0x5 )
                 	__GETD1N 0x5
0011d9 940e 1dd1 	CALL __DIVD21U
0011db 91af      	POP  R26
0011dc 91bf      	POP  R27
0011dd 918f      	POP  R24
0011de 919f      	POP  R25
0011df 940e 1d7b 	CALL __ADDD12
0011e1 91af      	POP  R26
0011e2 91bf      	POP  R27
0011e3 940e 1e04 	CALL __PUTDP1
                 ; 0001 04A1                 break;
0011e5 c007      	RJMP _0x2012C
                 ; 0001 04A2             }
                 ; 0001 04A3             else
                 _0x2012D:
                 ; 0001 04A4             {
                 ; 0001 04A5 failed_q22:     #asm("wdr");
0011e6 95a8      	wdr
                 ; 0001 04A6                 senderr("#retry_q22\n");
                +
0011e7 e6ac     +LDI R26 , LOW ( 2 * _0x20000 + ( 1262 ) )
0011e8 e0b6     +LDI R27 , HIGH ( 2 * _0x20000 + ( 1262 ) )
                 	__POINTW2FN _0x20000,1262
0011e9 940e 07ae 	CALL _senderr
                 ; 0001 04A7             }
                 ; 0001 04A8         }
0011eb 5f1f      	SUBI R17,-1
0011ec cfcd      	RJMP _0x2012B
                 _0x2012C:
                 ; 0001 04A9         if(iretry==3)
0011ed 3013      	CPI  R17,3
0011ee f429      	BRNE _0x20130
                 ; 0001 04AA         {
                 ; 0001 04AB             senderr("#failed_q22->c3_fail\n");
                +
0011ef e7a8     +LDI R26 , LOW ( 2 * _0x20000 + ( 1274 ) )
0011f0 e0b6     +LDI R27 , HIGH ( 2 * _0x20000 + ( 1274 ) )
                 	__POINTW2FN _0x20000,1274
0011f1 940e 07ae 	CALL _senderr
                 ; 0001 04AC             ic3=0;
0011f3 c234      	RJMP _0x201DD
                 ; 0001 04AD             memset(&c3,0,sizeof(struct DMED301));    //clear param_set
                 ; 0001 04AE             goto param_set4;
                 ; 0001 04AF         }
                 ; 0001 04B0 
                 ; 0001 04B1         strcpyf(msg,":030300190002DF\r\n");
                 _0x20130:
0011f4 e5ee      	LDI  R30,LOW(_msg)
0011f5 e0f2      	LDI  R31,HIGH(_msg)
0011f6 93fa      	ST   -Y,R31
0011f7 93ea      	ST   -Y,R30
                +
0011f8 e8ae     +LDI R26 , LOW ( 2 * _0x20000 + ( 1296 ) )
0011f9 e0b6     +LDI R27 , HIGH ( 2 * _0x20000 + ( 1296 ) )
                 	__POINTW2FN _0x20000,1296
0011fa 940e 1cf2 	CALL _strcpyf
                 ; 0001 04B2         for(iretry=0; iretry<3; iretry++)
0011fc e010      	LDI  R17,LOW(0)
                 _0x20132:
0011fd 3013      	CPI  R17,3
0011fe f588      	BRSH _0x20133
                 ; 0001 04B3         {
                 ; 0001 04B4             if(!ask_listen_validate03(3))
0011ff e0a3      	LDI  R26,LOW(3)
001200 940e 0803 	CALL _ask_listen_validate03
001202 30e0      	CPI  R30,0
001203 f529      	BRNE _0x20134
                 ; 0001 04B5             {
                 ; 0001 04B6                 c3.Q1 += val/5;
001204 01fe      	MOVW R30,R28
001205 96f6      	ADIW R30,54
001206 9678      	ADIW R30,24
001207 93ff      	PUSH R31
001208 93ef      	PUSH R30
001209 01df      	MOVW R26,R30
00120a 940e 1dfe 	CALL __GETD1P
00120c 937f      	PUSH R23
00120d 936f      	PUSH R22
00120e 93ff      	PUSH R31
00120f 93ef      	PUSH R30
001210 91a0 02e1 	LDS  R26,_val
001212 91b0 02e2 	LDS  R27,_val+1
001214 9180 02e3 	LDS  R24,_val+2
001216 9190 02e4 	LDS  R25,_val+3
                +
001218 e0e5     +LDI R30 , LOW ( 0x5 )
001219 e0f0     +LDI R31 , HIGH ( 0x5 )
00121a e060     +LDI R22 , BYTE3 ( 0x5 )
00121b e070     +LDI R23 , BYTE4 ( 0x5 )
                 	__GETD1N 0x5
00121c 940e 1dd1 	CALL __DIVD21U
00121e 91af      	POP  R26
00121f 91bf      	POP  R27
001220 918f      	POP  R24
001221 919f      	POP  R25
001222 940e 1d7b 	CALL __ADDD12
001224 91af      	POP  R26
001225 91bf      	POP  R27
001226 940e 1e04 	CALL __PUTDP1
                 ; 0001 04B7                 break;
001228 c007      	RJMP _0x20133
                 ; 0001 04B8             }
                 ; 0001 04B9             else
                 _0x20134:
                 ; 0001 04BA             {
                 ; 0001 04BB failed_q23:     #asm("wdr");
001229 95a8      	wdr
                 ; 0001 04BC                 senderr("#retry_q23\n");
                +
00122a eaa0     +LDI R26 , LOW ( 2 * _0x20000 + ( 1314 ) )
00122b e0b6     +LDI R27 , HIGH ( 2 * _0x20000 + ( 1314 ) )
                 	__POINTW2FN _0x20000,1314
00122c 940e 07ae 	CALL _senderr
                 ; 0001 04BD             }
                 ; 0001 04BE         }
00122e 5f1f      	SUBI R17,-1
00122f cfcd      	RJMP _0x20132
                 _0x20133:
                 ; 0001 04BF         if(iretry==3)
001230 3013      	CPI  R17,3
001231 f429      	BRNE _0x20137
                 ; 0001 04C0         {
                 ; 0001 04C1             senderr("#failed_q23->c3_fail\n");
                +
001232 eaac     +LDI R26 , LOW ( 2 * _0x20000 + ( 1326 ) )
001233 e0b6     +LDI R27 , HIGH ( 2 * _0x20000 + ( 1326 ) )
                 	__POINTW2FN _0x20000,1326
001234 940e 07ae 	CALL _senderr
                 ; 0001 04C2             ic3=0;
001236 c1f1      	RJMP _0x201DD
                 ; 0001 04C3             memset(&c3,0,sizeof(struct DMED301));    //clear param_set
                 ; 0001 04C4             goto param_set4;
                 ; 0001 04C5         }
                 ; 0001 04C6 
                 ; 0001 04C7         strcpyf(msg,":0303001B0002DD\r\n");
                 _0x20137:
001237 e5ee      	LDI  R30,LOW(_msg)
001238 e0f2      	LDI  R31,HIGH(_msg)
001239 93fa      	ST   -Y,R31
00123a 93ea      	ST   -Y,R30
                +
00123b eca2     +LDI R26 , LOW ( 2 * _0x20000 + ( 1348 ) )
00123c e0b6     +LDI R27 , HIGH ( 2 * _0x20000 + ( 1348 ) )
                 	__POINTW2FN _0x20000,1348
00123d 940e 1cf2 	CALL _strcpyf
                 ; 0001 04C8         for(iretry=0; iretry<3; iretry++)
00123f e010      	LDI  R17,LOW(0)
                 _0x20139:
001240 3013      	CPI  R17,3
001241 f588      	BRSH _0x2013A
                 ; 0001 04C9         {
                 ; 0001 04CA             if(!ask_listen_validate03(3))
001242 e0a3      	LDI  R26,LOW(3)
001243 940e 0803 	CALL _ask_listen_validate03
001245 30e0      	CPI  R30,0
001246 f529      	BRNE _0x2013B
                 ; 0001 04CB             {
                 ; 0001 04CC                 c3.Q2 += val/5;
001247 01fe      	MOVW R30,R28
001248 96f6      	ADIW R30,54
001249 967c      	ADIW R30,28
00124a 93ff      	PUSH R31
00124b 93ef      	PUSH R30
00124c 01df      	MOVW R26,R30
00124d 940e 1dfe 	CALL __GETD1P
00124f 937f      	PUSH R23
001250 936f      	PUSH R22
001251 93ff      	PUSH R31
001252 93ef      	PUSH R30
001253 91a0 02e1 	LDS  R26,_val
001255 91b0 02e2 	LDS  R27,_val+1
001257 9180 02e3 	LDS  R24,_val+2
001259 9190 02e4 	LDS  R25,_val+3
                +
00125b e0e5     +LDI R30 , LOW ( 0x5 )
00125c e0f0     +LDI R31 , HIGH ( 0x5 )
00125d e060     +LDI R22 , BYTE3 ( 0x5 )
00125e e070     +LDI R23 , BYTE4 ( 0x5 )
                 	__GETD1N 0x5
00125f 940e 1dd1 	CALL __DIVD21U
001261 91af      	POP  R26
001262 91bf      	POP  R27
001263 918f      	POP  R24
001264 919f      	POP  R25
001265 940e 1d7b 	CALL __ADDD12
001267 91af      	POP  R26
001268 91bf      	POP  R27
001269 940e 1e04 	CALL __PUTDP1
                 ; 0001 04CD                 break;
00126b c007      	RJMP _0x2013A
                 ; 0001 04CE             }
                 ; 0001 04CF             else
                 _0x2013B:
                 ; 0001 04D0             {
                 ; 0001 04D1 failed_q24:     #asm("wdr");
00126c 95a8      	wdr
                 ; 0001 04D2                 senderr("#retry_q24\n");
                +
00126d eda4     +LDI R26 , LOW ( 2 * _0x20000 + ( 1366 ) )
00126e e0b6     +LDI R27 , HIGH ( 2 * _0x20000 + ( 1366 ) )
                 	__POINTW2FN _0x20000,1366
00126f 940e 07ae 	CALL _senderr
                 ; 0001 04D3             }
                 ; 0001 04D4         }
001271 5f1f      	SUBI R17,-1
001272 cfcd      	RJMP _0x20139
                 _0x2013A:
                 ; 0001 04D5         if(iretry==3)
001273 3013      	CPI  R17,3
001274 f429      	BRNE _0x2013E
                 ; 0001 04D6         {
                 ; 0001 04D7             senderr("#failed_q24->c3_fail\n");
                +
001275 eea0     +LDI R26 , LOW ( 2 * _0x20000 + ( 1378 ) )
001276 e0b6     +LDI R27 , HIGH ( 2 * _0x20000 + ( 1378 ) )
                 	__POINTW2FN _0x20000,1378
001277 940e 07ae 	CALL _senderr
                 ; 0001 04D8             ic3=0;
001279 c1ae      	RJMP _0x201DD
                 ; 0001 04D9             memset(&c3,0,sizeof(struct DMED301));    //clear param_set
                 ; 0001 04DA             goto param_set4;
                 ; 0001 04DB         }
                 ; 0001 04DC 
                 ; 0001 04DD         strcpyf(msg,":0303001D0002DB\r\n");
                 _0x2013E:
00127a e5ee      	LDI  R30,LOW(_msg)
00127b e0f2      	LDI  R31,HIGH(_msg)
00127c 93fa      	ST   -Y,R31
00127d 93ea      	ST   -Y,R30
                +
00127e efa6     +LDI R26 , LOW ( 2 * _0x20000 + ( 1400 ) )
00127f e0b6     +LDI R27 , HIGH ( 2 * _0x20000 + ( 1400 ) )
                 	__POINTW2FN _0x20000,1400
001280 940e 1cf2 	CALL _strcpyf
                 ; 0001 04DE         for(iretry=0; iretry<3; iretry++)
001282 e010      	LDI  R17,LOW(0)
                 _0x20140:
001283 3013      	CPI  R17,3
001284 f588      	BRSH _0x20141
                 ; 0001 04DF         {
                 ; 0001 04E0             if(!ask_listen_validate03(3))
001285 e0a3      	LDI  R26,LOW(3)
001286 940e 0803 	CALL _ask_listen_validate03
001288 30e0      	CPI  R30,0
001289 f529      	BRNE _0x20142
                 ; 0001 04E1             {
                 ; 0001 04E2                 c3.Q3 += val/5;
00128a 01fe      	MOVW R30,R28
00128b 96f6      	ADIW R30,54
00128c 96b0      	ADIW R30,32
00128d 93ff      	PUSH R31
00128e 93ef      	PUSH R30
00128f 01df      	MOVW R26,R30
001290 940e 1dfe 	CALL __GETD1P
001292 937f      	PUSH R23
001293 936f      	PUSH R22
001294 93ff      	PUSH R31
001295 93ef      	PUSH R30
001296 91a0 02e1 	LDS  R26,_val
001298 91b0 02e2 	LDS  R27,_val+1
00129a 9180 02e3 	LDS  R24,_val+2
00129c 9190 02e4 	LDS  R25,_val+3
                +
00129e e0e5     +LDI R30 , LOW ( 0x5 )
00129f e0f0     +LDI R31 , HIGH ( 0x5 )
0012a0 e060     +LDI R22 , BYTE3 ( 0x5 )
0012a1 e070     +LDI R23 , BYTE4 ( 0x5 )
                 	__GETD1N 0x5
0012a2 940e 1dd1 	CALL __DIVD21U
0012a4 91af      	POP  R26
0012a5 91bf      	POP  R27
0012a6 918f      	POP  R24
0012a7 919f      	POP  R25
0012a8 940e 1d7b 	CALL __ADDD12
0012aa 91af      	POP  R26
0012ab 91bf      	POP  R27
0012ac 940e 1e04 	CALL __PUTDP1
                 ; 0001 04E3                 break;
0012ae c007      	RJMP _0x20141
                 ; 0001 04E4             }
                 ; 0001 04E5             else
                 _0x20142:
                 ; 0001 04E6             {
                 ; 0001 04E7 failed_q25:     #asm("wdr");
0012af 95a8      	wdr
                 ; 0001 04E8                 senderr("#retry_q25\n");
                +
0012b0 e0a8     +LDI R26 , LOW ( 2 * _0x20000 + ( 1418 ) )
0012b1 e0b7     +LDI R27 , HIGH ( 2 * _0x20000 + ( 1418 ) )
                 	__POINTW2FN _0x20000,1418
0012b2 940e 07ae 	CALL _senderr
                 ; 0001 04E9             }
                 ; 0001 04EA         }
0012b4 5f1f      	SUBI R17,-1
0012b5 cfcd      	RJMP _0x20140
                 _0x20141:
                 ; 0001 04EB         if(iretry==3)
0012b6 3013      	CPI  R17,3
0012b7 f429      	BRNE _0x20145
                 ; 0001 04EC         {
                 ; 0001 04ED             senderr("#failed_q25->c3_fail\n");
                +
0012b8 e1a4     +LDI R26 , LOW ( 2 * _0x20000 + ( 1430 ) )
0012b9 e0b7     +LDI R27 , HIGH ( 2 * _0x20000 + ( 1430 ) )
                 	__POINTW2FN _0x20000,1430
0012ba 940e 07ae 	CALL _senderr
                 ; 0001 04EE             ic3=0;
0012bc c16b      	RJMP _0x201DD
                 ; 0001 04EF             memset(&c3,0,sizeof(struct DMED301));    //clear param_set
                 ; 0001 04F0             goto param_set4;
                 ; 0001 04F1         }
                 ; 0001 04F2 
                 ; 0001 04F3         strcpyf(msg,":0303001F0002D9\r\n");
                 _0x20145:
0012bd e5ee      	LDI  R30,LOW(_msg)
0012be e0f2      	LDI  R31,HIGH(_msg)
0012bf 93fa      	ST   -Y,R31
0012c0 93ea      	ST   -Y,R30
                +
0012c1 e2aa     +LDI R26 , LOW ( 2 * _0x20000 + ( 1452 ) )
0012c2 e0b7     +LDI R27 , HIGH ( 2 * _0x20000 + ( 1452 ) )
                 	__POINTW2FN _0x20000,1452
0012c3 940e 1cf2 	CALL _strcpyf
                 ; 0001 04F4         for(iretry=0; iretry<3; iretry++)
0012c5 e010      	LDI  R17,LOW(0)
                 _0x20147:
0012c6 3013      	CPI  R17,3
0012c7 f588      	BRSH _0x20148
                 ; 0001 04F5         {
                 ; 0001 04F6             if(!ask_listen_validate03(3))
0012c8 e0a3      	LDI  R26,LOW(3)
0012c9 940e 0803 	CALL _ask_listen_validate03
0012cb 30e0      	CPI  R30,0
0012cc f529      	BRNE _0x20149
                 ; 0001 04F7             {
                 ; 0001 04F8                 c3.S1 += val/5;
0012cd 01fe      	MOVW R30,R28
0012ce 96f6      	ADIW R30,54
0012cf 96b4      	ADIW R30,36
0012d0 93ff      	PUSH R31
0012d1 93ef      	PUSH R30
0012d2 01df      	MOVW R26,R30
0012d3 940e 1dfe 	CALL __GETD1P
0012d5 937f      	PUSH R23
0012d6 936f      	PUSH R22
0012d7 93ff      	PUSH R31
0012d8 93ef      	PUSH R30
0012d9 91a0 02e1 	LDS  R26,_val
0012db 91b0 02e2 	LDS  R27,_val+1
0012dd 9180 02e3 	LDS  R24,_val+2
0012df 9190 02e4 	LDS  R25,_val+3
                +
0012e1 e0e5     +LDI R30 , LOW ( 0x5 )
0012e2 e0f0     +LDI R31 , HIGH ( 0x5 )
0012e3 e060     +LDI R22 , BYTE3 ( 0x5 )
0012e4 e070     +LDI R23 , BYTE4 ( 0x5 )
                 	__GETD1N 0x5
0012e5 940e 1dd1 	CALL __DIVD21U
0012e7 91af      	POP  R26
0012e8 91bf      	POP  R27
0012e9 918f      	POP  R24
0012ea 919f      	POP  R25
0012eb 940e 1d7b 	CALL __ADDD12
0012ed 91af      	POP  R26
0012ee 91bf      	POP  R27
0012ef 940e 1e04 	CALL __PUTDP1
                 ; 0001 04F9                 break;
0012f1 c007      	RJMP _0x20148
                 ; 0001 04FA             }
                 ; 0001 04FB             else
                 _0x20149:
                 ; 0001 04FC             {
                 ; 0001 04FD failed_q26:     #asm("wdr");
0012f2 95a8      	wdr
                 ; 0001 04FE                 senderr("#retry_q26\n");
                +
0012f3 e3ac     +LDI R26 , LOW ( 2 * _0x20000 + ( 1470 ) )
0012f4 e0b7     +LDI R27 , HIGH ( 2 * _0x20000 + ( 1470 ) )
                 	__POINTW2FN _0x20000,1470
0012f5 940e 07ae 	CALL _senderr
                 ; 0001 04FF             }
                 ; 0001 0500         }
0012f7 5f1f      	SUBI R17,-1
0012f8 cfcd      	RJMP _0x20147
                 _0x20148:
                 ; 0001 0501         if(iretry==3)
0012f9 3013      	CPI  R17,3
0012fa f429      	BRNE _0x2014C
                 ; 0001 0502         {
                 ; 0001 0503             senderr("#failed_q26->c3_fail\n");
                +
0012fb e4a8     +LDI R26 , LOW ( 2 * _0x20000 + ( 1482 ) )
0012fc e0b7     +LDI R27 , HIGH ( 2 * _0x20000 + ( 1482 ) )
                 	__POINTW2FN _0x20000,1482
0012fd 940e 07ae 	CALL _senderr
                 ; 0001 0504             ic3=0;
0012ff c128      	RJMP _0x201DD
                 ; 0001 0505             memset(&c3,0,sizeof(struct DMED301));    //clear param_set
                 ; 0001 0506             goto param_set4;
                 ; 0001 0507         }
                 ; 0001 0508 
                 ; 0001 0509         strcpyf(msg,":030300210002D7\r\n");
                 _0x2014C:
001300 e5ee      	LDI  R30,LOW(_msg)
001301 e0f2      	LDI  R31,HIGH(_msg)
001302 93fa      	ST   -Y,R31
001303 93ea      	ST   -Y,R30
                +
001304 e5ae     +LDI R26 , LOW ( 2 * _0x20000 + ( 1504 ) )
001305 e0b7     +LDI R27 , HIGH ( 2 * _0x20000 + ( 1504 ) )
                 	__POINTW2FN _0x20000,1504
001306 940e 1cf2 	CALL _strcpyf
                 ; 0001 050A         for(iretry=0; iretry<3; iretry++)
001308 e010      	LDI  R17,LOW(0)
                 _0x2014E:
001309 3013      	CPI  R17,3
00130a f588      	BRSH _0x2014F
                 ; 0001 050B         {
                 ; 0001 050C             if(!ask_listen_validate03(3))
00130b e0a3      	LDI  R26,LOW(3)
00130c 940e 0803 	CALL _ask_listen_validate03
00130e 30e0      	CPI  R30,0
00130f f529      	BRNE _0x20150
                 ; 0001 050D             {
                 ; 0001 050E                 c3.S2 += val/5;
001310 01fe      	MOVW R30,R28
001311 96f6      	ADIW R30,54
001312 96b8      	ADIW R30,40
001313 93ff      	PUSH R31
001314 93ef      	PUSH R30
001315 01df      	MOVW R26,R30
001316 940e 1dfe 	CALL __GETD1P
001318 937f      	PUSH R23
001319 936f      	PUSH R22
00131a 93ff      	PUSH R31
00131b 93ef      	PUSH R30
00131c 91a0 02e1 	LDS  R26,_val
00131e 91b0 02e2 	LDS  R27,_val+1
001320 9180 02e3 	LDS  R24,_val+2
001322 9190 02e4 	LDS  R25,_val+3
                +
001324 e0e5     +LDI R30 , LOW ( 0x5 )
001325 e0f0     +LDI R31 , HIGH ( 0x5 )
001326 e060     +LDI R22 , BYTE3 ( 0x5 )
001327 e070     +LDI R23 , BYTE4 ( 0x5 )
                 	__GETD1N 0x5
001328 940e 1dd1 	CALL __DIVD21U
00132a 91af      	POP  R26
00132b 91bf      	POP  R27
00132c 918f      	POP  R24
00132d 919f      	POP  R25
00132e 940e 1d7b 	CALL __ADDD12
001330 91af      	POP  R26
001331 91bf      	POP  R27
001332 940e 1e04 	CALL __PUTDP1
                 ; 0001 050F                 break;
001334 c007      	RJMP _0x2014F
                 ; 0001 0510             }
                 ; 0001 0511             else
                 _0x20150:
                 ; 0001 0512             {
                 ; 0001 0513 failed_q27:     #asm("wdr");
001335 95a8      	wdr
                 ; 0001 0514                 senderr("#retry_q27\n");
                +
001336 e7a0     +LDI R26 , LOW ( 2 * _0x20000 + ( 1522 ) )
001337 e0b7     +LDI R27 , HIGH ( 2 * _0x20000 + ( 1522 ) )
                 	__POINTW2FN _0x20000,1522
001338 940e 07ae 	CALL _senderr
                 ; 0001 0515             }
                 ; 0001 0516         }
00133a 5f1f      	SUBI R17,-1
00133b cfcd      	RJMP _0x2014E
                 _0x2014F:
                 ; 0001 0517         if(iretry==3)
00133c 3013      	CPI  R17,3
00133d f429      	BRNE _0x20153
                 ; 0001 0518         {
                 ; 0001 0519             senderr("#failed_q27->c3_fail\n");
                +
00133e e7ac     +LDI R26 , LOW ( 2 * _0x20000 + ( 1534 ) )
00133f e0b7     +LDI R27 , HIGH ( 2 * _0x20000 + ( 1534 ) )
                 	__POINTW2FN _0x20000,1534
001340 940e 07ae 	CALL _senderr
                 ; 0001 051A             ic3=0;
001342 c0e5      	RJMP _0x201DD
                 ; 0001 051B             memset(&c3,0,sizeof(struct DMED301));    //clear param_set
                 ; 0001 051C             goto param_set4;
                 ; 0001 051D         }
                 ; 0001 051E 
                 ; 0001 051F         strcpyf(msg,":030300230002D5\r\n");
                 _0x20153:
001343 e5ee      	LDI  R30,LOW(_msg)
001344 e0f2      	LDI  R31,HIGH(_msg)
001345 93fa      	ST   -Y,R31
001346 93ea      	ST   -Y,R30
                +
001347 e9a2     +LDI R26 , LOW ( 2 * _0x20000 + ( 1556 ) )
001348 e0b7     +LDI R27 , HIGH ( 2 * _0x20000 + ( 1556 ) )
                 	__POINTW2FN _0x20000,1556
001349 940e 1cf2 	CALL _strcpyf
                 ; 0001 0520         for(iretry=0; iretry<3; iretry++)
00134b e010      	LDI  R17,LOW(0)
                 _0x20155:
00134c 3013      	CPI  R17,3
00134d f588      	BRSH _0x20156
                 ; 0001 0521         {
                 ; 0001 0522             if(!ask_listen_validate03(3))
00134e e0a3      	LDI  R26,LOW(3)
00134f 940e 0803 	CALL _ask_listen_validate03
001351 30e0      	CPI  R30,0
001352 f529      	BRNE _0x20157
                 ; 0001 0523             {
                 ; 0001 0524                 c3.S3 += val/5;
001353 01fe      	MOVW R30,R28
001354 96f6      	ADIW R30,54
001355 96bc      	ADIW R30,44
001356 93ff      	PUSH R31
001357 93ef      	PUSH R30
001358 01df      	MOVW R26,R30
001359 940e 1dfe 	CALL __GETD1P
00135b 937f      	PUSH R23
00135c 936f      	PUSH R22
00135d 93ff      	PUSH R31
00135e 93ef      	PUSH R30
00135f 91a0 02e1 	LDS  R26,_val
001361 91b0 02e2 	LDS  R27,_val+1
001363 9180 02e3 	LDS  R24,_val+2
001365 9190 02e4 	LDS  R25,_val+3
                +
001367 e0e5     +LDI R30 , LOW ( 0x5 )
001368 e0f0     +LDI R31 , HIGH ( 0x5 )
001369 e060     +LDI R22 , BYTE3 ( 0x5 )
00136a e070     +LDI R23 , BYTE4 ( 0x5 )
                 	__GETD1N 0x5
00136b 940e 1dd1 	CALL __DIVD21U
00136d 91af      	POP  R26
00136e 91bf      	POP  R27
00136f 918f      	POP  R24
001370 919f      	POP  R25
001371 940e 1d7b 	CALL __ADDD12
001373 91af      	POP  R26
001374 91bf      	POP  R27
001375 940e 1e04 	CALL __PUTDP1
                 ; 0001 0525                 break;
001377 c007      	RJMP _0x20156
                 ; 0001 0526             }
                 ; 0001 0527             else
                 _0x20157:
                 ; 0001 0528             {
                 ; 0001 0529 failed_q28:     #asm("wdr");
001378 95a8      	wdr
                 ; 0001 052A                 senderr("#retry_q28\n");
                +
001379 eaa4     +LDI R26 , LOW ( 2 * _0x20000 + ( 1574 ) )
00137a e0b7     +LDI R27 , HIGH ( 2 * _0x20000 + ( 1574 ) )
                 	__POINTW2FN _0x20000,1574
00137b 940e 07ae 	CALL _senderr
                 ; 0001 052B             }
                 ; 0001 052C         }
00137d 5f1f      	SUBI R17,-1
00137e cfcd      	RJMP _0x20155
                 _0x20156:
                 ; 0001 052D         if(iretry==3)
00137f 3013      	CPI  R17,3
001380 f429      	BRNE _0x2015A
                 ; 0001 052E         {
                 ; 0001 052F             senderr("#failed_q28->c3_fail\n");
                +
001381 eba0     +LDI R26 , LOW ( 2 * _0x20000 + ( 1586 ) )
001382 e0b7     +LDI R27 , HIGH ( 2 * _0x20000 + ( 1586 ) )
                 	__POINTW2FN _0x20000,1586
001383 940e 07ae 	CALL _senderr
                 ; 0001 0530             ic3=0;
001385 c0a2      	RJMP _0x201DD
                 ; 0001 0531             memset(&c3,0,sizeof(struct DMED301));    //clear param_set
                 ; 0001 0532             goto param_set4;
                 ; 0001 0533         }
                 ; 0001 0534 
                 ; 0001 0535 
                 ; 0001 0536 
                 ; 0001 0537         if(++ic3==5)    // 5 values acquired, insert obtained mean
                 _0x2015A:
001386 5f2f      	SUBI R18,-LOW(1)
001387 3025      	CPI  R18,5
001388 f009      	BREQ PC+2
001389 c0a9      	RJMP _0x2015B
                 ; 0001 0538         {
                 ; 0001 0539             sprintf(msg,"CALL insert_em3(%ld,%ld,", c3.I1, c3.I2);
00138a e5ee      	LDI  R30,LOW(_msg)
00138b e0f2      	LDI  R31,HIGH(_msg)
00138c 93fa      	ST   -Y,R31
00138d 93ea      	ST   -Y,R30
                +
00138e ece6     +LDI R30 , LOW ( 2 * _0x20000 + ( 1608 ) )
00138f e0f7     +LDI R31 , HIGH ( 2 * _0x20000 + ( 1608 ) )
                 	__POINTW1FN _0x20000,1608
001390 93fa      	ST   -Y,R31
001391 93ea      	ST   -Y,R30
                +
001392 adea     +LDD R30 , Y + 58
001393 adfb     +LDD R31 , Y + 58 + 1
001394 ad6c     +LDD R22 , Y + 58 + 2
001395 ad7d     +LDD R23 , Y + 58 + 3
                 	__GETD1S 58
001396 940e 1e0b 	CALL __PUTPARD1
001398 01fe      	MOVW R30,R28
001399 96fe      	ADIW R30,62
00139a 9634      	ADIW R30,4
00139b 01df      	MOVW R26,R30
00139c 940e 1dfe 	CALL __GETD1P
00139e 940e 1e0b 	CALL __PUTPARD1
0013a0 e088      	LDI  R24,8
0013a1 940e 1a9b 	CALL _sprintf
0013a3 962c      	ADIW R28,12
                 ; 0001 053A             sendqry();
0013a4 940e 07eb 	CALL _sendqry
                 ; 0001 053B             #asm("wdr");
0013a6 95a8      	wdr
                 ; 0001 053C             sprintf(msg,"%ld,%ld,%ld,%ld,", c3.I3, c3.P1, c3.P2, c3.P3);
0013a7 e5ee      	LDI  R30,LOW(_msg)
0013a8 e0f2      	LDI  R31,HIGH(_msg)
0013a9 93fa      	ST   -Y,R31
0013aa 93ea      	ST   -Y,R30
                +
0013ab e4e5     +LDI R30 , LOW ( 2 * _0x20000 + ( 967 ) )
0013ac e0f5     +LDI R31 , HIGH ( 2 * _0x20000 + ( 967 ) )
                 	__POINTW1FN _0x20000,967
0013ad 93fa      	ST   -Y,R31
0013ae 93ea      	ST   -Y,R30
0013af 01fe      	MOVW R30,R28
0013b0 96fa      	ADIW R30,58
0013b1 9638      	ADIW R30,8
0013b2 01df      	MOVW R26,R30
0013b3 940e 1dfe 	CALL __GETD1P
0013b5 940e 1e0b 	CALL __PUTPARD1
0013b7 01fe      	MOVW R30,R28
0013b8 96fe      	ADIW R30,62
0013b9 963c      	ADIW R30,12
0013ba 01df      	MOVW R26,R30
0013bb 940e 1dfe 	CALL __GETD1P
0013bd 940e 1e0b 	CALL __PUTPARD1
0013bf 01fe      	MOVW R30,R28
0013c0 5bee      	SUBI R30,LOW(-(66))
0013c1 4fff      	SBCI R31,HIGH(-(66))
0013c2 9670      	ADIW R30,16
0013c3 01df      	MOVW R26,R30
0013c4 940e 1dfe 	CALL __GETD1P
0013c6 940e 1e0b 	CALL __PUTPARD1
0013c8 01fe      	MOVW R30,R28
0013c9 5bea      	SUBI R30,LOW(-(70))
0013ca 4fff      	SBCI R31,HIGH(-(70))
0013cb 9674      	ADIW R30,20
0013cc 01df      	MOVW R26,R30
0013cd 940e 1dfe 	CALL __GETD1P
0013cf 940e 1e0b 	CALL __PUTPARD1
0013d1 e180      	LDI  R24,16
0013d2 940e 1a9b 	CALL _sprintf
0013d4 9664      	ADIW R28,20
                 ; 0001 053D             sendqry();
0013d5 940e 07eb 	CALL _sendqry
                 ; 0001 053E             #asm("wdr");
0013d7 95a8      	wdr
                 ; 0001 053F             sprintf(msg,"%ld,%ld,%ld,%ld,", c3.Q1, c3.Q2, c3.Q3, c3.S1);
0013d8 e5ee      	LDI  R30,LOW(_msg)
0013d9 e0f2      	LDI  R31,HIGH(_msg)
0013da 93fa      	ST   -Y,R31
0013db 93ea      	ST   -Y,R30
                +
0013dc e4e5     +LDI R30 , LOW ( 2 * _0x20000 + ( 967 ) )
0013dd e0f5     +LDI R31 , HIGH ( 2 * _0x20000 + ( 967 ) )
                 	__POINTW1FN _0x20000,967
0013de 93fa      	ST   -Y,R31
0013df 93ea      	ST   -Y,R30
0013e0 01fe      	MOVW R30,R28
0013e1 96fa      	ADIW R30,58
0013e2 9678      	ADIW R30,24
0013e3 01df      	MOVW R26,R30
0013e4 940e 1dfe 	CALL __GETD1P
0013e6 940e 1e0b 	CALL __PUTPARD1
0013e8 01fe      	MOVW R30,R28
0013e9 96fe      	ADIW R30,62
0013ea 967c      	ADIW R30,28
0013eb 01df      	MOVW R26,R30
0013ec 940e 1dfe 	CALL __GETD1P
0013ee 940e 1e0b 	CALL __PUTPARD1
0013f0 01fe      	MOVW R30,R28
0013f1 5bee      	SUBI R30,LOW(-(66))
0013f2 4fff      	SBCI R31,HIGH(-(66))
0013f3 96b0      	ADIW R30,32
0013f4 01df      	MOVW R26,R30
0013f5 940e 1dfe 	CALL __GETD1P
0013f7 940e 1e0b 	CALL __PUTPARD1
0013f9 01fe      	MOVW R30,R28
0013fa 5bea      	SUBI R30,LOW(-(70))
0013fb 4fff      	SBCI R31,HIGH(-(70))
0013fc 96b4      	ADIW R30,36
0013fd 01df      	MOVW R26,R30
0013fe 940e 1dfe 	CALL __GETD1P
001400 940e 1e0b 	CALL __PUTPARD1
001402 e180      	LDI  R24,16
001403 940e 1a9b 	CALL _sprintf
001405 9664      	ADIW R28,20
                 ; 0001 0540             sendqry();
001406 940e 07eb 	CALL _sendqry
                 ; 0001 0541             #asm("wdr");
001408 95a8      	wdr
                 ; 0001 0542             sprintf(msg,"%ld,%ld);\n", c3.S2, c3.S3);
001409 e5ee      	LDI  R30,LOW(_msg)
00140a e0f2      	LDI  R31,HIGH(_msg)
00140b 93fa      	ST   -Y,R31
00140c 93ea      	ST   -Y,R30
                +
00140d ebeb     +LDI R30 , LOW ( 2 * _0x20000 + ( 317 ) )
00140e e0f2     +LDI R31 , HIGH ( 2 * _0x20000 + ( 317 ) )
                 	__POINTW1FN _0x20000,317
00140f 93fa      	ST   -Y,R31
001410 93ea      	ST   -Y,R30
001411 01fe      	MOVW R30,R28
001412 96fa      	ADIW R30,58
001413 96b8      	ADIW R30,40
001414 01df      	MOVW R26,R30
001415 940e 1dfe 	CALL __GETD1P
001417 940e 1e0b 	CALL __PUTPARD1
001419 01fe      	MOVW R30,R28
00141a 96fe      	ADIW R30,62
00141b 96bc      	ADIW R30,44
00141c 01df      	MOVW R26,R30
00141d 940e 1dfe 	CALL __GETD1P
00141f 940e 1e0b 	CALL __PUTPARD1
001421 e088      	LDI  R24,8
001422 940e 1a9b 	CALL _sprintf
001424 962c      	ADIW R28,12
                 ; 0001 0543             sendqry();
001425 940e 07eb 	CALL _sendqry
                 ; 0001 0544             #asm("wdr");
001427 95a8      	wdr
                 ; 0001 0545             ic3=0;
                 _0x201DD:
001428 e020      	LDI  R18,LOW(0)
                 ; 0001 0546             memset(&c3,0,sizeof(struct DMED301));    //clear param_set
001429 01fe      	MOVW R30,R28
00142a 96f6      	ADIW R30,54
00142b 93fa      	ST   -Y,R31
00142c 93ea      	ST   -Y,R30
00142d e0e0      	LDI  R30,LOW(0)
00142e 93ea      	ST   -Y,R30
00142f e3a0      	LDI  R26,LOW(48)
001430 e0b0      	LDI  R27,0
001431 940e 1ce2 	CALL _memset
                 ; 0001 0547         }
                 ; 0001 0548 
                 ; 0001 0549 
                 ; 0001 054A param_set4:
                 _0x2015B:
                 ; 0001 054B         strcpyf(msg,":040300070002F0\r\n");
001433 e5ee      	LDI  R30,LOW(_msg)
001434 e0f2      	LDI  R31,HIGH(_msg)
001435 93fa      	ST   -Y,R31
001436 93ea      	ST   -Y,R30
                +
001437 edaf     +LDI R26 , LOW ( 2 * _0x20000 + ( 1633 ) )
001438 e0b7     +LDI R27 , HIGH ( 2 * _0x20000 + ( 1633 ) )
                 	__POINTW2FN _0x20000,1633
001439 940e 1cf2 	CALL _strcpyf
                 ; 0001 054C         for(iretry=0; iretry<3; iretry++)
00143b e010      	LDI  R17,LOW(0)
                 _0x2015D:
00143c 3013      	CPI  R17,3
00143d f528      	BRSH _0x2015E
                 ; 0001 054D         {
                 ; 0001 054E             if(!ask_listen_validate03(4))
00143e e0a4      	LDI  R26,LOW(4)
00143f 940e 0803 	CALL _ask_listen_validate03
001441 30e0      	CPI  R30,0
001442 f4c9      	BRNE _0x2015F
                 ; 0001 054F             {
                 ; 0001 0550                 c4.I1 += val/5;
001443 91a0 02e1 	LDS  R26,_val
001445 91b0 02e2 	LDS  R27,_val+1
001447 9180 02e3 	LDS  R24,_val+2
001449 9190 02e4 	LDS  R25,_val+3
                +
00144b e0e5     +LDI R30 , LOW ( 0x5 )
00144c e0f0     +LDI R31 , HIGH ( 0x5 )
00144d e060     +LDI R22 , BYTE3 ( 0x5 )
00144e e070     +LDI R23 , BYTE4 ( 0x5 )
                 	__GETD1N 0x5
00144f 940e 1dd1 	CALL __DIVD21U
                +
001451 81ae     +LDD R26 , Y + 6
001452 81bf     +LDD R27 , Y + 6 + 1
001453 8588     +LDD R24 , Y + 6 + 2
001454 8599     +LDD R25 , Y + 6 + 3
                 	__GETD2S 6
001455 940e 1d7b 	CALL __ADDD12
                +
001457 83ee     +STD Y + 6 , R30
001458 83ff     +STD Y + 6 + 1 , R31
001459 8768     +STD Y + 6 + 2 , R22
00145a 8779     +STD Y + 6 + 3 , R23
                 	__PUTD1S 6
                 ; 0001 0551                 break;
00145b c007      	RJMP _0x2015E
                 ; 0001 0552             }
                 ; 0001 0553             else
                 _0x2015F:
                 ; 0001 0554             {
                 ; 0001 0555 failed_q29:     #asm("wdr");
00145c 95a8      	wdr
                 ; 0001 0556                 senderr("#retry_q29\n");
                +
00145d efa1     +LDI R26 , LOW ( 2 * _0x20000 + ( 1651 ) )
00145e e0b7     +LDI R27 , HIGH ( 2 * _0x20000 + ( 1651 ) )
                 	__POINTW2FN _0x20000,1651
00145f 940e 07ae 	CALL _senderr
                 ; 0001 0557             }
                 ; 0001 0558         }
001461 5f1f      	SUBI R17,-1
001462 cfd9      	RJMP _0x2015D
                 _0x2015E:
                 ; 0001 0559         if(iretry==3)
001463 3013      	CPI  R17,3
001464 f431      	BRNE _0x20162
                 ; 0001 055A         {
                 ; 0001 055B             senderr("#failed_q29->c4_fail\n");
                +
001465 efad     +LDI R26 , LOW ( 2 * _0x20000 + ( 1663 ) )
001466 e0b7     +LDI R27 , HIGH ( 2 * _0x20000 + ( 1663 ) )
                 	__POINTW2FN _0x20000,1663
001467 940e 07ae 	CALL _senderr
                 ; 0001 055C             ic4=0;
001469 940c 1751 	JMP  _0x201DE
                 ; 0001 055D             memset(&c4,0,sizeof(struct DMED301));    //clear param_set
                 ; 0001 055E             goto set_relays;
                 ; 0001 055F         }
                 ; 0001 0560 
                 ; 0001 0561         strcpyf(msg,":040300090002EE\r\n");
                 _0x20162:
00146b e5ee      	LDI  R30,LOW(_msg)
00146c e0f2      	LDI  R31,HIGH(_msg)
00146d 93fa      	ST   -Y,R31
00146e 93ea      	ST   -Y,R30
                +
00146f e1a3     +LDI R26 , LOW ( 2 * _0x20000 + ( 1685 ) )
001470 e0b8     +LDI R27 , HIGH ( 2 * _0x20000 + ( 1685 ) )
                 	__POINTW2FN _0x20000,1685
001471 940e 1cf2 	CALL _strcpyf
                 ; 0001 0562         for(iretry=0; iretry<3; iretry++)
001473 e010      	LDI  R17,LOW(0)
                 _0x20165:
001474 3013      	CPI  R17,3
001475 f528      	BRSH _0x20166
                 ; 0001 0563         {
                 ; 0001 0564             if(!ask_listen_validate03(4))
001476 e0a4      	LDI  R26,LOW(4)
001477 940e 0803 	CALL _ask_listen_validate03
001479 30e0      	CPI  R30,0
00147a f4c9      	BRNE _0x20167
                 ; 0001 0565             {
                 ; 0001 0566                 c4.I2 += val/5;
00147b 91a0 02e1 	LDS  R26,_val
00147d 91b0 02e2 	LDS  R27,_val+1
00147f 9180 02e3 	LDS  R24,_val+2
001481 9190 02e4 	LDS  R25,_val+3
                +
001483 e0e5     +LDI R30 , LOW ( 0x5 )
001484 e0f0     +LDI R31 , HIGH ( 0x5 )
001485 e060     +LDI R22 , BYTE3 ( 0x5 )
001486 e070     +LDI R23 , BYTE4 ( 0x5 )
                 	__GETD1N 0x5
001487 940e 1dd1 	CALL __DIVD21U
                +
001489 85aa     +LDD R26 , Y + 10
00148a 85bb     +LDD R27 , Y + 10 + 1
00148b 858c     +LDD R24 , Y + 10 + 2
00148c 859d     +LDD R25 , Y + 10 + 3
                 	__GETD2S 10
00148d 940e 1d7b 	CALL __ADDD12
                +
00148f 87ea     +STD Y + 10 , R30
001490 87fb     +STD Y + 10 + 1 , R31
001491 876c     +STD Y + 10 + 2 , R22
001492 877d     +STD Y + 10 + 3 , R23
                 	__PUTD1S 10
                 ; 0001 0567                 break;
001493 c007      	RJMP _0x20166
                 ; 0001 0568             }
                 ; 0001 0569             else
                 _0x20167:
                 ; 0001 056A             {
                 ; 0001 056B failed_q30:     #asm("wdr");
001494 95a8      	wdr
                 ; 0001 056C                 senderr("#retry_q30\n");
                +
001495 e2a5     +LDI R26 , LOW ( 2 * _0x20000 + ( 1703 ) )
001496 e0b8     +LDI R27 , HIGH ( 2 * _0x20000 + ( 1703 ) )
                 	__POINTW2FN _0x20000,1703
001497 940e 07ae 	CALL _senderr
                 ; 0001 056D             }
                 ; 0001 056E         }
001499 5f1f      	SUBI R17,-1
00149a cfd9      	RJMP _0x20165
                 _0x20166:
                 ; 0001 056F         if(iretry==3)
00149b 3013      	CPI  R17,3
00149c f431      	BRNE _0x2016A
                 ; 0001 0570         {
                 ; 0001 0571             senderr("#failed_q30->c4_fail\n");
                +
00149d e3a1     +LDI R26 , LOW ( 2 * _0x20000 + ( 1715 ) )
00149e e0b8     +LDI R27 , HIGH ( 2 * _0x20000 + ( 1715 ) )
                 	__POINTW2FN _0x20000,1715
00149f 940e 07ae 	CALL _senderr
                 ; 0001 0572             ic4=0;
0014a1 940c 1751 	JMP  _0x201DE
                 ; 0001 0573             memset(&c4,0,sizeof(struct DMED301));    //clear param_set
                 ; 0001 0574             goto set_relays;
                 ; 0001 0575         }
                 ; 0001 0576 
                 ; 0001 0577         strcpyf(msg,":0403000B0002EC\r\n");
                 _0x2016A:
0014a3 e5ee      	LDI  R30,LOW(_msg)
0014a4 e0f2      	LDI  R31,HIGH(_msg)
0014a5 93fa      	ST   -Y,R31
0014a6 93ea      	ST   -Y,R30
                +
0014a7 e4a7     +LDI R26 , LOW ( 2 * _0x20000 + ( 1737 ) )
0014a8 e0b8     +LDI R27 , HIGH ( 2 * _0x20000 + ( 1737 ) )
                 	__POINTW2FN _0x20000,1737
0014a9 940e 1cf2 	CALL _strcpyf
                 ; 0001 0578         for(iretry=0; iretry<3; iretry++)
0014ab e010      	LDI  R17,LOW(0)
                 _0x2016C:
0014ac 3013      	CPI  R17,3
0014ad f528      	BRSH _0x2016D
                 ; 0001 0579         {
                 ; 0001 057A             if(!ask_listen_validate03(4))
0014ae e0a4      	LDI  R26,LOW(4)
0014af 940e 0803 	CALL _ask_listen_validate03
0014b1 30e0      	CPI  R30,0
0014b2 f4c9      	BRNE _0x2016E
                 ; 0001 057B             {
                 ; 0001 057C                 c4.I3 += val/5;
0014b3 91a0 02e1 	LDS  R26,_val
0014b5 91b0 02e2 	LDS  R27,_val+1
0014b7 9180 02e3 	LDS  R24,_val+2
0014b9 9190 02e4 	LDS  R25,_val+3
                +
0014bb e0e5     +LDI R30 , LOW ( 0x5 )
0014bc e0f0     +LDI R31 , HIGH ( 0x5 )
0014bd e060     +LDI R22 , BYTE3 ( 0x5 )
0014be e070     +LDI R23 , BYTE4 ( 0x5 )
                 	__GETD1N 0x5
0014bf 940e 1dd1 	CALL __DIVD21U
                +
0014c1 85ae     +LDD R26 , Y + 14
0014c2 85bf     +LDD R27 , Y + 14 + 1
0014c3 8988     +LDD R24 , Y + 14 + 2
0014c4 8999     +LDD R25 , Y + 14 + 3
                 	__GETD2S 14
0014c5 940e 1d7b 	CALL __ADDD12
                +
0014c7 87ee     +STD Y + 14 , R30
0014c8 87ff     +STD Y + 14 + 1 , R31
0014c9 8b68     +STD Y + 14 + 2 , R22
0014ca 8b79     +STD Y + 14 + 3 , R23
                 	__PUTD1S 14
                 ; 0001 057D                 break;
0014cb c007      	RJMP _0x2016D
                 ; 0001 057E             }
                 ; 0001 057F             else
                 _0x2016E:
                 ; 0001 0580             {
                 ; 0001 0581 failed_q31:     #asm("wdr");
0014cc 95a8      	wdr
                 ; 0001 0582                 senderr("#retry_q31\n");
                +
0014cd e5a9     +LDI R26 , LOW ( 2 * _0x20000 + ( 1755 ) )
0014ce e0b8     +LDI R27 , HIGH ( 2 * _0x20000 + ( 1755 ) )
                 	__POINTW2FN _0x20000,1755
0014cf 940e 07ae 	CALL _senderr
                 ; 0001 0583             }
                 ; 0001 0584         }
0014d1 5f1f      	SUBI R17,-1
0014d2 cfd9      	RJMP _0x2016C
                 _0x2016D:
                 ; 0001 0585         if(iretry==3)
0014d3 3013      	CPI  R17,3
0014d4 f429      	BRNE _0x20171
                 ; 0001 0586         {
                 ; 0001 0587             senderr("#failed_q31->c4_fail\n");
                +
0014d5 e6a5     +LDI R26 , LOW ( 2 * _0x20000 + ( 1767 ) )
0014d6 e0b8     +LDI R27 , HIGH ( 2 * _0x20000 + ( 1767 ) )
                 	__POINTW2FN _0x20000,1767
0014d7 940e 07ae 	CALL _senderr
                 ; 0001 0588             ic4=0;
0014d9 c277      	RJMP _0x201DE
                 ; 0001 0589             memset(&c4,0,sizeof(struct DMED301));    //clear param_set
                 ; 0001 058A             goto set_relays;
                 ; 0001 058B         }
                 ; 0001 058C 
                 ; 0001 058D         strcpyf(msg,":040300130002E4\r\n");
                 _0x20171:
0014da e5ee      	LDI  R30,LOW(_msg)
0014db e0f2      	LDI  R31,HIGH(_msg)
0014dc 93fa      	ST   -Y,R31
0014dd 93ea      	ST   -Y,R30
                +
0014de e7ab     +LDI R26 , LOW ( 2 * _0x20000 + ( 1789 ) )
0014df e0b8     +LDI R27 , HIGH ( 2 * _0x20000 + ( 1789 ) )
                 	__POINTW2FN _0x20000,1789
0014e0 940e 1cf2 	CALL _strcpyf
                 ; 0001 058E         for(iretry=0; iretry<3; iretry++)
0014e2 e010      	LDI  R17,LOW(0)
                 _0x20173:
0014e3 3013      	CPI  R17,3
0014e4 f528      	BRSH _0x20174
                 ; 0001 058F         {
                 ; 0001 0590             if(!ask_listen_validate03(4))
0014e5 e0a4      	LDI  R26,LOW(4)
0014e6 940e 0803 	CALL _ask_listen_validate03
0014e8 30e0      	CPI  R30,0
0014e9 f4c9      	BRNE _0x20175
                 ; 0001 0591             {
                 ; 0001 0592                 c4.P1 += val/5;
0014ea 91a0 02e1 	LDS  R26,_val
0014ec 91b0 02e2 	LDS  R27,_val+1
0014ee 9180 02e3 	LDS  R24,_val+2
0014f0 9190 02e4 	LDS  R25,_val+3
                +
0014f2 e0e5     +LDI R30 , LOW ( 0x5 )
0014f3 e0f0     +LDI R31 , HIGH ( 0x5 )
0014f4 e060     +LDI R22 , BYTE3 ( 0x5 )
0014f5 e070     +LDI R23 , BYTE4 ( 0x5 )
                 	__GETD1N 0x5
0014f6 940e 1dd1 	CALL __DIVD21U
                +
0014f8 89aa     +LDD R26 , Y + 18
0014f9 89bb     +LDD R27 , Y + 18 + 1
0014fa 898c     +LDD R24 , Y + 18 + 2
0014fb 899d     +LDD R25 , Y + 18 + 3
                 	__GETD2S 18
0014fc 940e 1d7b 	CALL __ADDD12
                +
0014fe 8bea     +STD Y + 18 , R30
0014ff 8bfb     +STD Y + 18 + 1 , R31
001500 8b6c     +STD Y + 18 + 2 , R22
001501 8b7d     +STD Y + 18 + 3 , R23
                 	__PUTD1S 18
                 ; 0001 0593                 break;
001502 c007      	RJMP _0x20174
                 ; 0001 0594             }
                 ; 0001 0595             else
                 _0x20175:
                 ; 0001 0596             {
                 ; 0001 0597 failed_q32:     #asm("wdr");
001503 95a8      	wdr
                 ; 0001 0598                 senderr("#retry_q32\n");
                +
001504 e8ad     +LDI R26 , LOW ( 2 * _0x20000 + ( 1807 ) )
001505 e0b8     +LDI R27 , HIGH ( 2 * _0x20000 + ( 1807 ) )
                 	__POINTW2FN _0x20000,1807
001506 940e 07ae 	CALL _senderr
                 ; 0001 0599             }
                 ; 0001 059A         }
001508 5f1f      	SUBI R17,-1
001509 cfd9      	RJMP _0x20173
                 _0x20174:
                 ; 0001 059B         if(iretry==3)
00150a 3013      	CPI  R17,3
00150b f429      	BRNE _0x20178
                 ; 0001 059C         {
                 ; 0001 059D             senderr("#failed_q32->c4_fail\n");
                +
00150c e9a9     +LDI R26 , LOW ( 2 * _0x20000 + ( 1819 ) )
00150d e0b8     +LDI R27 , HIGH ( 2 * _0x20000 + ( 1819 ) )
                 	__POINTW2FN _0x20000,1819
00150e 940e 07ae 	CALL _senderr
                 ; 0001 059E             ic4=0;
001510 c240      	RJMP _0x201DE
                 ; 0001 059F             memset(&c4,0,sizeof(struct DMED301));    //clear param_set
                 ; 0001 05A0             goto set_relays;
                 ; 0001 05A1         }
                 ; 0001 05A2 
                 ; 0001 05A3         strcpyf(msg,":040300150002E2\r\n");
                 _0x20178:
001511 e5ee      	LDI  R30,LOW(_msg)
001512 e0f2      	LDI  R31,HIGH(_msg)
001513 93fa      	ST   -Y,R31
001514 93ea      	ST   -Y,R30
                +
001515 eaaf     +LDI R26 , LOW ( 2 * _0x20000 + ( 1841 ) )
001516 e0b8     +LDI R27 , HIGH ( 2 * _0x20000 + ( 1841 ) )
                 	__POINTW2FN _0x20000,1841
001517 940e 1cf2 	CALL _strcpyf
                 ; 0001 05A4         for(iretry=0; iretry<3; iretry++)
001519 e010      	LDI  R17,LOW(0)
                 _0x2017A:
00151a 3013      	CPI  R17,3
00151b f528      	BRSH _0x2017B
                 ; 0001 05A5         {
                 ; 0001 05A6             if(!ask_listen_validate03(4))
00151c e0a4      	LDI  R26,LOW(4)
00151d 940e 0803 	CALL _ask_listen_validate03
00151f 30e0      	CPI  R30,0
001520 f4c9      	BRNE _0x2017C
                 ; 0001 05A7             {
                 ; 0001 05A8                 c4.P2 += val/5;
001521 91a0 02e1 	LDS  R26,_val
001523 91b0 02e2 	LDS  R27,_val+1
001525 9180 02e3 	LDS  R24,_val+2
001527 9190 02e4 	LDS  R25,_val+3
                +
001529 e0e5     +LDI R30 , LOW ( 0x5 )
00152a e0f0     +LDI R31 , HIGH ( 0x5 )
00152b e060     +LDI R22 , BYTE3 ( 0x5 )
00152c e070     +LDI R23 , BYTE4 ( 0x5 )
                 	__GETD1N 0x5
00152d 940e 1dd1 	CALL __DIVD21U
                +
00152f 89ae     +LDD R26 , Y + 22
001530 89bf     +LDD R27 , Y + 22 + 1
001531 8d88     +LDD R24 , Y + 22 + 2
001532 8d99     +LDD R25 , Y + 22 + 3
                 	__GETD2S 22
001533 940e 1d7b 	CALL __ADDD12
                +
001535 8bee     +STD Y + 22 , R30
001536 8bff     +STD Y + 22 + 1 , R31
001537 8f68     +STD Y + 22 + 2 , R22
001538 8f79     +STD Y + 22 + 3 , R23
                 	__PUTD1S 22
                 ; 0001 05A9                 break;
001539 c007      	RJMP _0x2017B
                 ; 0001 05AA             }
                 ; 0001 05AB             else
                 _0x2017C:
                 ; 0001 05AC             {
                 ; 0001 05AD failed_q33:     #asm("wdr");
00153a 95a8      	wdr
                 ; 0001 05AE                 senderr("#retry_q33\n");
                +
00153b eca1     +LDI R26 , LOW ( 2 * _0x20000 + ( 1859 ) )
00153c e0b8     +LDI R27 , HIGH ( 2 * _0x20000 + ( 1859 ) )
                 	__POINTW2FN _0x20000,1859
00153d 940e 07ae 	CALL _senderr
                 ; 0001 05AF             }
                 ; 0001 05B0         }
00153f 5f1f      	SUBI R17,-1
001540 cfd9      	RJMP _0x2017A
                 _0x2017B:
                 ; 0001 05B1         if(iretry==3)
001541 3013      	CPI  R17,3
001542 f429      	BRNE _0x2017F
                 ; 0001 05B2         {
                 ; 0001 05B3             senderr("#failed_q33->c4_fail\n");
                +
001543 ecad     +LDI R26 , LOW ( 2 * _0x20000 + ( 1871 ) )
001544 e0b8     +LDI R27 , HIGH ( 2 * _0x20000 + ( 1871 ) )
                 	__POINTW2FN _0x20000,1871
001545 940e 07ae 	CALL _senderr
                 ; 0001 05B4             ic4=0;
001547 c209      	RJMP _0x201DE
                 ; 0001 05B5             memset(&c4,0,sizeof(struct DMED301));    //clear param_set
                 ; 0001 05B6             goto set_relays;
                 ; 0001 05B7         }
                 ; 0001 05B8 
                 ; 0001 05B9         strcpyf(msg,":040300170002E0\r\n");
                 _0x2017F:
001548 e5ee      	LDI  R30,LOW(_msg)
001549 e0f2      	LDI  R31,HIGH(_msg)
00154a 93fa      	ST   -Y,R31
00154b 93ea      	ST   -Y,R30
                +
00154c eea3     +LDI R26 , LOW ( 2 * _0x20000 + ( 1893 ) )
00154d e0b8     +LDI R27 , HIGH ( 2 * _0x20000 + ( 1893 ) )
                 	__POINTW2FN _0x20000,1893
00154e 940e 1cf2 	CALL _strcpyf
                 ; 0001 05BA         for(iretry=0; iretry<3; iretry++)
001550 e010      	LDI  R17,LOW(0)
                 _0x20181:
001551 3013      	CPI  R17,3
001552 f528      	BRSH _0x20182
                 ; 0001 05BB         {
                 ; 0001 05BC             if(!ask_listen_validate03(4))
001553 e0a4      	LDI  R26,LOW(4)
001554 940e 0803 	CALL _ask_listen_validate03
001556 30e0      	CPI  R30,0
001557 f4c9      	BRNE _0x20183
                 ; 0001 05BD             {
                 ; 0001 05BE                 c4.P3 += val/5;
001558 91a0 02e1 	LDS  R26,_val
00155a 91b0 02e2 	LDS  R27,_val+1
00155c 9180 02e3 	LDS  R24,_val+2
00155e 9190 02e4 	LDS  R25,_val+3
                +
001560 e0e5     +LDI R30 , LOW ( 0x5 )
001561 e0f0     +LDI R31 , HIGH ( 0x5 )
001562 e060     +LDI R22 , BYTE3 ( 0x5 )
001563 e070     +LDI R23 , BYTE4 ( 0x5 )
                 	__GETD1N 0x5
001564 940e 1dd1 	CALL __DIVD21U
                +
001566 8daa     +LDD R26 , Y + 26
001567 8dbb     +LDD R27 , Y + 26 + 1
001568 8d8c     +LDD R24 , Y + 26 + 2
001569 8d9d     +LDD R25 , Y + 26 + 3
                 	__GETD2S 26
00156a 940e 1d7b 	CALL __ADDD12
                +
00156c 8fea     +STD Y + 26 , R30
00156d 8ffb     +STD Y + 26 + 1 , R31
00156e 8f6c     +STD Y + 26 + 2 , R22
00156f 8f7d     +STD Y + 26 + 3 , R23
                 	__PUTD1S 26
                 ; 0001 05BF                 break;
001570 c007      	RJMP _0x20182
                 ; 0001 05C0             }
                 ; 0001 05C1             else
                 _0x20183:
                 ; 0001 05C2             {
                 ; 0001 05C3 failed_q34:     #asm("wdr");
001571 95a8      	wdr
                 ; 0001 05C4                 senderr("#retry_q34\n");
                +
001572 efa5     +LDI R26 , LOW ( 2 * _0x20000 + ( 1911 ) )
001573 e0b8     +LDI R27 , HIGH ( 2 * _0x20000 + ( 1911 ) )
                 	__POINTW2FN _0x20000,1911
001574 940e 07ae 	CALL _senderr
                 ; 0001 05C5             }
                 ; 0001 05C6         }
001576 5f1f      	SUBI R17,-1
001577 cfd9      	RJMP _0x20181
                 _0x20182:
                 ; 0001 05C7         if(iretry==3)
001578 3013      	CPI  R17,3
001579 f429      	BRNE _0x20186
                 ; 0001 05C8         {
                 ; 0001 05C9             senderr("#failed_q34->c4_fail\n");
                +
00157a e0a1     +LDI R26 , LOW ( 2 * _0x20000 + ( 1923 ) )
00157b e0b9     +LDI R27 , HIGH ( 2 * _0x20000 + ( 1923 ) )
                 	__POINTW2FN _0x20000,1923
00157c 940e 07ae 	CALL _senderr
                 ; 0001 05CA             ic4=0;
00157e c1d2      	RJMP _0x201DE
                 ; 0001 05CB             memset(&c4,0,sizeof(struct DMED301));    //clear param_set
                 ; 0001 05CC             goto set_relays;
                 ; 0001 05CD         }
                 ; 0001 05CE 
                 ; 0001 05CF         strcpyf(msg,":040300190002DE\r\n");
                 _0x20186:
00157f e5ee      	LDI  R30,LOW(_msg)
001580 e0f2      	LDI  R31,HIGH(_msg)
001581 93fa      	ST   -Y,R31
001582 93ea      	ST   -Y,R30
                +
001583 e1a7     +LDI R26 , LOW ( 2 * _0x20000 + ( 1945 ) )
001584 e0b9     +LDI R27 , HIGH ( 2 * _0x20000 + ( 1945 ) )
                 	__POINTW2FN _0x20000,1945
001585 940e 1cf2 	CALL _strcpyf
                 ; 0001 05D0         for(iretry=0; iretry<3; iretry++)
001587 e010      	LDI  R17,LOW(0)
                 _0x20188:
001588 3013      	CPI  R17,3
001589 f528      	BRSH _0x20189
                 ; 0001 05D1         {
                 ; 0001 05D2             if(!ask_listen_validate03(4))
00158a e0a4      	LDI  R26,LOW(4)
00158b 940e 0803 	CALL _ask_listen_validate03
00158d 30e0      	CPI  R30,0
00158e f4c9      	BRNE _0x2018A
                 ; 0001 05D3             {
                 ; 0001 05D4                 c4.Q1 += val/5;
00158f 91a0 02e1 	LDS  R26,_val
001591 91b0 02e2 	LDS  R27,_val+1
001593 9180 02e3 	LDS  R24,_val+2
001595 9190 02e4 	LDS  R25,_val+3
                +
001597 e0e5     +LDI R30 , LOW ( 0x5 )
001598 e0f0     +LDI R31 , HIGH ( 0x5 )
001599 e060     +LDI R22 , BYTE3 ( 0x5 )
00159a e070     +LDI R23 , BYTE4 ( 0x5 )
                 	__GETD1N 0x5
00159b 940e 1dd1 	CALL __DIVD21U
                +
00159d 8dae     +LDD R26 , Y + 30
00159e 8dbf     +LDD R27 , Y + 30 + 1
00159f a188     +LDD R24 , Y + 30 + 2
0015a0 a199     +LDD R25 , Y + 30 + 3
                 	__GETD2S 30
0015a1 940e 1d7b 	CALL __ADDD12
                +
0015a3 8fee     +STD Y + 30 , R30
0015a4 8fff     +STD Y + 30 + 1 , R31
0015a5 a368     +STD Y + 30 + 2 , R22
0015a6 a379     +STD Y + 30 + 3 , R23
                 	__PUTD1S 30
                 ; 0001 05D5                 break;
0015a7 c007      	RJMP _0x20189
                 ; 0001 05D6             }
                 ; 0001 05D7             else
                 _0x2018A:
                 ; 0001 05D8             {
                 ; 0001 05D9 failed_q35:     #asm("wdr");
0015a8 95a8      	wdr
                 ; 0001 05DA                 senderr("#retry_q35\n");
                +
0015a9 e2a9     +LDI R26 , LOW ( 2 * _0x20000 + ( 1963 ) )
0015aa e0b9     +LDI R27 , HIGH ( 2 * _0x20000 + ( 1963 ) )
                 	__POINTW2FN _0x20000,1963
0015ab 940e 07ae 	CALL _senderr
                 ; 0001 05DB             }
                 ; 0001 05DC         }
0015ad 5f1f      	SUBI R17,-1
0015ae cfd9      	RJMP _0x20188
                 _0x20189:
                 ; 0001 05DD         if(iretry==3)
0015af 3013      	CPI  R17,3
0015b0 f429      	BRNE _0x2018D
                 ; 0001 05DE         {
                 ; 0001 05DF             senderr("#failed_q35->c4_fail\n");
                +
0015b1 e3a5     +LDI R26 , LOW ( 2 * _0x20000 + ( 1975 ) )
0015b2 e0b9     +LDI R27 , HIGH ( 2 * _0x20000 + ( 1975 ) )
                 	__POINTW2FN _0x20000,1975
0015b3 940e 07ae 	CALL _senderr
                 ; 0001 05E0             ic4=0;
0015b5 c19b      	RJMP _0x201DE
                 ; 0001 05E1             memset(&c4,0,sizeof(struct DMED301));    //clear param_set
                 ; 0001 05E2             goto set_relays;
                 ; 0001 05E3         }
                 ; 0001 05E4 
                 ; 0001 05E5         strcpyf(msg,":0403001B0002DC\r\n");
                 _0x2018D:
0015b6 e5ee      	LDI  R30,LOW(_msg)
0015b7 e0f2      	LDI  R31,HIGH(_msg)
0015b8 93fa      	ST   -Y,R31
0015b9 93ea      	ST   -Y,R30
                +
0015ba e4ab     +LDI R26 , LOW ( 2 * _0x20000 + ( 1997 ) )
0015bb e0b9     +LDI R27 , HIGH ( 2 * _0x20000 + ( 1997 ) )
                 	__POINTW2FN _0x20000,1997
0015bc 940e 1cf2 	CALL _strcpyf
                 ; 0001 05E6         for(iretry=0; iretry<3; iretry++)
0015be e010      	LDI  R17,LOW(0)
                 _0x2018F:
0015bf 3013      	CPI  R17,3
0015c0 f528      	BRSH _0x20190
                 ; 0001 05E7         {
                 ; 0001 05E8             if(!ask_listen_validate03(4))
0015c1 e0a4      	LDI  R26,LOW(4)
0015c2 940e 0803 	CALL _ask_listen_validate03
0015c4 30e0      	CPI  R30,0
0015c5 f4c9      	BRNE _0x20191
                 ; 0001 05E9             {
                 ; 0001 05EA                 c4.Q2 += val/5;
0015c6 91a0 02e1 	LDS  R26,_val
0015c8 91b0 02e2 	LDS  R27,_val+1
0015ca 9180 02e3 	LDS  R24,_val+2
0015cc 9190 02e4 	LDS  R25,_val+3
                +
0015ce e0e5     +LDI R30 , LOW ( 0x5 )
0015cf e0f0     +LDI R31 , HIGH ( 0x5 )
0015d0 e060     +LDI R22 , BYTE3 ( 0x5 )
0015d1 e070     +LDI R23 , BYTE4 ( 0x5 )
                 	__GETD1N 0x5
0015d2 940e 1dd1 	CALL __DIVD21U
                +
0015d4 a1aa     +LDD R26 , Y + 34
0015d5 a1bb     +LDD R27 , Y + 34 + 1
0015d6 a18c     +LDD R24 , Y + 34 + 2
0015d7 a19d     +LDD R25 , Y + 34 + 3
                 	__GETD2S 34
0015d8 940e 1d7b 	CALL __ADDD12
                +
0015da a3ea     +STD Y + 34 , R30
0015db a3fb     +STD Y + 34 + 1 , R31
0015dc a36c     +STD Y + 34 + 2 , R22
0015dd a37d     +STD Y + 34 + 3 , R23
                 	__PUTD1S 34
                 ; 0001 05EB                 break;
0015de c007      	RJMP _0x20190
                 ; 0001 05EC             }
                 ; 0001 05ED             else
                 _0x20191:
                 ; 0001 05EE             {
                 ; 0001 05EF failed_q36:     #asm("wdr");
0015df 95a8      	wdr
                 ; 0001 05F0                 senderr("#retry_q36\n");
                +
0015e0 e5ad     +LDI R26 , LOW ( 2 * _0x20000 + ( 2015 ) )
0015e1 e0b9     +LDI R27 , HIGH ( 2 * _0x20000 + ( 2015 ) )
                 	__POINTW2FN _0x20000,2015
0015e2 940e 07ae 	CALL _senderr
                 ; 0001 05F1             }
                 ; 0001 05F2         }
0015e4 5f1f      	SUBI R17,-1
0015e5 cfd9      	RJMP _0x2018F
                 _0x20190:
                 ; 0001 05F3         if(iretry==3)
0015e6 3013      	CPI  R17,3
0015e7 f429      	BRNE _0x20194
                 ; 0001 05F4         {
                 ; 0001 05F5             senderr("#failed_q36->c4_fail\n");
                +
0015e8 e6a9     +LDI R26 , LOW ( 2 * _0x20000 + ( 2027 ) )
0015e9 e0b9     +LDI R27 , HIGH ( 2 * _0x20000 + ( 2027 ) )
                 	__POINTW2FN _0x20000,2027
0015ea 940e 07ae 	CALL _senderr
                 ; 0001 05F6             ic4=0;
0015ec c164      	RJMP _0x201DE
                 ; 0001 05F7             memset(&c4,0,sizeof(struct DMED301));    //clear param_set
                 ; 0001 05F8             goto set_relays;
                 ; 0001 05F9         }
                 ; 0001 05FA 
                 ; 0001 05FB         strcpyf(msg,":0403001D0002DA\r\n");
                 _0x20194:
0015ed e5ee      	LDI  R30,LOW(_msg)
0015ee e0f2      	LDI  R31,HIGH(_msg)
0015ef 93fa      	ST   -Y,R31
0015f0 93ea      	ST   -Y,R30
                +
0015f1 e7af     +LDI R26 , LOW ( 2 * _0x20000 + ( 2049 ) )
0015f2 e0b9     +LDI R27 , HIGH ( 2 * _0x20000 + ( 2049 ) )
                 	__POINTW2FN _0x20000,2049
0015f3 940e 1cf2 	CALL _strcpyf
                 ; 0001 05FC         for(iretry=0; iretry<3; iretry++)
0015f5 e010      	LDI  R17,LOW(0)
                 _0x20196:
0015f6 3013      	CPI  R17,3
0015f7 f528      	BRSH _0x20197
                 ; 0001 05FD         {
                 ; 0001 05FE             if(!ask_listen_validate03(4))
0015f8 e0a4      	LDI  R26,LOW(4)
0015f9 940e 0803 	CALL _ask_listen_validate03
0015fb 30e0      	CPI  R30,0
0015fc f4c9      	BRNE _0x20198
                 ; 0001 05FF             {
                 ; 0001 0600                 c4.Q3 += val/5;
0015fd 91a0 02e1 	LDS  R26,_val
0015ff 91b0 02e2 	LDS  R27,_val+1
001601 9180 02e3 	LDS  R24,_val+2
001603 9190 02e4 	LDS  R25,_val+3
                +
001605 e0e5     +LDI R30 , LOW ( 0x5 )
001606 e0f0     +LDI R31 , HIGH ( 0x5 )
001607 e060     +LDI R22 , BYTE3 ( 0x5 )
001608 e070     +LDI R23 , BYTE4 ( 0x5 )
                 	__GETD1N 0x5
001609 940e 1dd1 	CALL __DIVD21U
                +
00160b a1ae     +LDD R26 , Y + 38
00160c a1bf     +LDD R27 , Y + 38 + 1
00160d a588     +LDD R24 , Y + 38 + 2
00160e a599     +LDD R25 , Y + 38 + 3
                 	__GETD2S 38
00160f 940e 1d7b 	CALL __ADDD12
                +
001611 a3ee     +STD Y + 38 , R30
001612 a3ff     +STD Y + 38 + 1 , R31
001613 a768     +STD Y + 38 + 2 , R22
001614 a779     +STD Y + 38 + 3 , R23
                 	__PUTD1S 38
                 ; 0001 0601                 break;
001615 c007      	RJMP _0x20197
                 ; 0001 0602             }
                 ; 0001 0603             else
                 _0x20198:
                 ; 0001 0604             {
                 ; 0001 0605 failed_q37:     #asm("wdr");
001616 95a8      	wdr
                 ; 0001 0606                 senderr("#retry_q37\n");
                +
001617 e9a1     +LDI R26 , LOW ( 2 * _0x20000 + ( 2067 ) )
001618 e0b9     +LDI R27 , HIGH ( 2 * _0x20000 + ( 2067 ) )
                 	__POINTW2FN _0x20000,2067
001619 940e 07ae 	CALL _senderr
                 ; 0001 0607             }
                 ; 0001 0608         }
00161b 5f1f      	SUBI R17,-1
00161c cfd9      	RJMP _0x20196
                 _0x20197:
                 ; 0001 0609         if(iretry==3)
00161d 3013      	CPI  R17,3
00161e f429      	BRNE _0x2019B
                 ; 0001 060A         {
                 ; 0001 060B             senderr("#failed_q37->c4_fail\n");
                +
00161f e9ad     +LDI R26 , LOW ( 2 * _0x20000 + ( 2079 ) )
001620 e0b9     +LDI R27 , HIGH ( 2 * _0x20000 + ( 2079 ) )
                 	__POINTW2FN _0x20000,2079
001621 940e 07ae 	CALL _senderr
                 ; 0001 060C             ic4=0;
001623 c12d      	RJMP _0x201DE
                 ; 0001 060D             memset(&c4,0,sizeof(struct DMED301));    //clear param_set
                 ; 0001 060E             goto set_relays;
                 ; 0001 060F         }
                 ; 0001 0610 
                 ; 0001 0611         strcpyf(msg,":0403001F0002D8\r\n");
                 _0x2019B:
001624 e5ee      	LDI  R30,LOW(_msg)
001625 e0f2      	LDI  R31,HIGH(_msg)
001626 93fa      	ST   -Y,R31
001627 93ea      	ST   -Y,R30
                +
001628 eba3     +LDI R26 , LOW ( 2 * _0x20000 + ( 2101 ) )
001629 e0b9     +LDI R27 , HIGH ( 2 * _0x20000 + ( 2101 ) )
                 	__POINTW2FN _0x20000,2101
00162a 940e 1cf2 	CALL _strcpyf
                 ; 0001 0612         for(iretry=0; iretry<3; iretry++)
00162c e010      	LDI  R17,LOW(0)
                 _0x2019D:
00162d 3013      	CPI  R17,3
00162e f528      	BRSH _0x2019E
                 ; 0001 0613         {
                 ; 0001 0614             if(!ask_listen_validate03(4))
00162f e0a4      	LDI  R26,LOW(4)
001630 940e 0803 	CALL _ask_listen_validate03
001632 30e0      	CPI  R30,0
001633 f4c9      	BRNE _0x2019F
                 ; 0001 0615             {
                 ; 0001 0616                 c4.S1 += val/5;
001634 91a0 02e1 	LDS  R26,_val
001636 91b0 02e2 	LDS  R27,_val+1
001638 9180 02e3 	LDS  R24,_val+2
00163a 9190 02e4 	LDS  R25,_val+3
                +
00163c e0e5     +LDI R30 , LOW ( 0x5 )
00163d e0f0     +LDI R31 , HIGH ( 0x5 )
00163e e060     +LDI R22 , BYTE3 ( 0x5 )
00163f e070     +LDI R23 , BYTE4 ( 0x5 )
                 	__GETD1N 0x5
001640 940e 1dd1 	CALL __DIVD21U
                +
001642 a5aa     +LDD R26 , Y + 42
001643 a5bb     +LDD R27 , Y + 42 + 1
001644 a58c     +LDD R24 , Y + 42 + 2
001645 a59d     +LDD R25 , Y + 42 + 3
                 	__GETD2S 42
001646 940e 1d7b 	CALL __ADDD12
                +
001648 a7ea     +STD Y + 42 , R30
001649 a7fb     +STD Y + 42 + 1 , R31
00164a a76c     +STD Y + 42 + 2 , R22
00164b a77d     +STD Y + 42 + 3 , R23
                 	__PUTD1S 42
                 ; 0001 0617                 break;
00164c c007      	RJMP _0x2019E
                 ; 0001 0618             }
                 ; 0001 0619             else
                 _0x2019F:
                 ; 0001 061A             {
                 ; 0001 061B failed_q38:     #asm("wdr");
00164d 95a8      	wdr
                 ; 0001 061C                 senderr("#retry_q38\n");
                +
00164e eca5     +LDI R26 , LOW ( 2 * _0x20000 + ( 2119 ) )
00164f e0b9     +LDI R27 , HIGH ( 2 * _0x20000 + ( 2119 ) )
                 	__POINTW2FN _0x20000,2119
001650 940e 07ae 	CALL _senderr
                 ; 0001 061D             }
                 ; 0001 061E         }
001652 5f1f      	SUBI R17,-1
001653 cfd9      	RJMP _0x2019D
                 _0x2019E:
                 ; 0001 061F         if(iretry==3)
001654 3013      	CPI  R17,3
001655 f429      	BRNE _0x201A2
                 ; 0001 0620         {
                 ; 0001 0621             senderr("#failed_q38->c4_fail\n");
                +
001656 eda1     +LDI R26 , LOW ( 2 * _0x20000 + ( 2131 ) )
001657 e0b9     +LDI R27 , HIGH ( 2 * _0x20000 + ( 2131 ) )
                 	__POINTW2FN _0x20000,2131
001658 940e 07ae 	CALL _senderr
                 ; 0001 0622             ic4=0;
00165a c0f6      	RJMP _0x201DE
                 ; 0001 0623             memset(&c4,0,sizeof(struct DMED301));    //clear param_set
                 ; 0001 0624             goto set_relays;
                 ; 0001 0625         }
                 ; 0001 0626 
                 ; 0001 0627         strcpyf(msg,":040300210002D6\r\n");
                 _0x201A2:
00165b e5ee      	LDI  R30,LOW(_msg)
00165c e0f2      	LDI  R31,HIGH(_msg)
00165d 93fa      	ST   -Y,R31
00165e 93ea      	ST   -Y,R30
                +
00165f eea7     +LDI R26 , LOW ( 2 * _0x20000 + ( 2153 ) )
001660 e0b9     +LDI R27 , HIGH ( 2 * _0x20000 + ( 2153 ) )
                 	__POINTW2FN _0x20000,2153
001661 940e 1cf2 	CALL _strcpyf
                 ; 0001 0628         for(iretry=0; iretry<3; iretry++)
001663 e010      	LDI  R17,LOW(0)
                 _0x201A4:
001664 3013      	CPI  R17,3
001665 f528      	BRSH _0x201A5
                 ; 0001 0629         {
                 ; 0001 062A             if(!ask_listen_validate03(4))
001666 e0a4      	LDI  R26,LOW(4)
001667 940e 0803 	CALL _ask_listen_validate03
001669 30e0      	CPI  R30,0
00166a f4c9      	BRNE _0x201A6
                 ; 0001 062B             {
                 ; 0001 062C                 c4.S2 += val/5;
00166b 91a0 02e1 	LDS  R26,_val
00166d 91b0 02e2 	LDS  R27,_val+1
00166f 9180 02e3 	LDS  R24,_val+2
001671 9190 02e4 	LDS  R25,_val+3
                +
001673 e0e5     +LDI R30 , LOW ( 0x5 )
001674 e0f0     +LDI R31 , HIGH ( 0x5 )
001675 e060     +LDI R22 , BYTE3 ( 0x5 )
001676 e070     +LDI R23 , BYTE4 ( 0x5 )
                 	__GETD1N 0x5
001677 940e 1dd1 	CALL __DIVD21U
                +
001679 a5ae     +LDD R26 , Y + 46
00167a a5bf     +LDD R27 , Y + 46 + 1
00167b a988     +LDD R24 , Y + 46 + 2
00167c a999     +LDD R25 , Y + 46 + 3
                 	__GETD2S 46
00167d 940e 1d7b 	CALL __ADDD12
                +
00167f a7ee     +STD Y + 46 , R30
001680 a7ff     +STD Y + 46 + 1 , R31
001681 ab68     +STD Y + 46 + 2 , R22
001682 ab79     +STD Y + 46 + 3 , R23
                 	__PUTD1S 46
                 ; 0001 062D                 break;
001683 c007      	RJMP _0x201A5
                 ; 0001 062E             }
                 ; 0001 062F             else
                 _0x201A6:
                 ; 0001 0630             {
                 ; 0001 0631 failed_q39:     #asm("wdr");
001684 95a8      	wdr
                 ; 0001 0632                 senderr("#retry_q39\n");
                +
001685 efa9     +LDI R26 , LOW ( 2 * _0x20000 + ( 2171 ) )
001686 e0b9     +LDI R27 , HIGH ( 2 * _0x20000 + ( 2171 ) )
                 	__POINTW2FN _0x20000,2171
001687 940e 07ae 	CALL _senderr
                 ; 0001 0633             }
                 ; 0001 0634         }
001689 5f1f      	SUBI R17,-1
00168a cfd9      	RJMP _0x201A4
                 _0x201A5:
                 ; 0001 0635         if(iretry==3)
00168b 3013      	CPI  R17,3
00168c f429      	BRNE _0x201A9
                 ; 0001 0636         {
                 ; 0001 0637             senderr("#failed_q39->c4_fail\n");
                +
00168d e0a5     +LDI R26 , LOW ( 2 * _0x20000 + ( 2183 ) )
00168e e0ba     +LDI R27 , HIGH ( 2 * _0x20000 + ( 2183 ) )
                 	__POINTW2FN _0x20000,2183
00168f 940e 07ae 	CALL _senderr
                 ; 0001 0638             ic4=0;
001691 c0bf      	RJMP _0x201DE
                 ; 0001 0639             memset(&c4,0,sizeof(struct DMED301));    //clear param_set
                 ; 0001 063A             goto set_relays;
                 ; 0001 063B         }
                 ; 0001 063C 
                 ; 0001 063D         strcpyf(msg,":040300230002D4\r\n");
                 _0x201A9:
001692 e5ee      	LDI  R30,LOW(_msg)
001693 e0f2      	LDI  R31,HIGH(_msg)
001694 93fa      	ST   -Y,R31
001695 93ea      	ST   -Y,R30
                +
001696 e1ab     +LDI R26 , LOW ( 2 * _0x20000 + ( 2205 ) )
001697 e0ba     +LDI R27 , HIGH ( 2 * _0x20000 + ( 2205 ) )
                 	__POINTW2FN _0x20000,2205
001698 940e 1cf2 	CALL _strcpyf
                 ; 0001 063E         for(iretry=0; iretry<3; iretry++)
00169a e010      	LDI  R17,LOW(0)
                 _0x201AB:
00169b 3013      	CPI  R17,3
00169c f528      	BRSH _0x201AC
                 ; 0001 063F         {
                 ; 0001 0640             if(!ask_listen_validate03(4))
00169d e0a4      	LDI  R26,LOW(4)
00169e 940e 0803 	CALL _ask_listen_validate03
0016a0 30e0      	CPI  R30,0
0016a1 f4c9      	BRNE _0x201AD
                 ; 0001 0641             {
                 ; 0001 0642                 c4.S3 += val/5;
0016a2 91a0 02e1 	LDS  R26,_val
0016a4 91b0 02e2 	LDS  R27,_val+1
0016a6 9180 02e3 	LDS  R24,_val+2
0016a8 9190 02e4 	LDS  R25,_val+3
                +
0016aa e0e5     +LDI R30 , LOW ( 0x5 )
0016ab e0f0     +LDI R31 , HIGH ( 0x5 )
0016ac e060     +LDI R22 , BYTE3 ( 0x5 )
0016ad e070     +LDI R23 , BYTE4 ( 0x5 )
                 	__GETD1N 0x5
0016ae 940e 1dd1 	CALL __DIVD21U
                +
0016b0 a9aa     +LDD R26 , Y + 50
0016b1 a9bb     +LDD R27 , Y + 50 + 1
0016b2 a98c     +LDD R24 , Y + 50 + 2
0016b3 a99d     +LDD R25 , Y + 50 + 3
                 	__GETD2S 50
0016b4 940e 1d7b 	CALL __ADDD12
                +
0016b6 abea     +STD Y + 50 , R30
0016b7 abfb     +STD Y + 50 + 1 , R31
0016b8 ab6c     +STD Y + 50 + 2 , R22
0016b9 ab7d     +STD Y + 50 + 3 , R23
                 	__PUTD1S 50
                 ; 0001 0643                 break;
0016ba c007      	RJMP _0x201AC
                 ; 0001 0644             }
                 ; 0001 0645             else
                 _0x201AD:
                 ; 0001 0646             {
                 ; 0001 0647 failed_q40:     #asm("wdr");
0016bb 95a8      	wdr
                 ; 0001 0648                 senderr("#retry_q40\n");
                +
0016bc e2ad     +LDI R26 , LOW ( 2 * _0x20000 + ( 2223 ) )
0016bd e0ba     +LDI R27 , HIGH ( 2 * _0x20000 + ( 2223 ) )
                 	__POINTW2FN _0x20000,2223
0016be 940e 07ae 	CALL _senderr
                 ; 0001 0649             }
                 ; 0001 064A         }
0016c0 5f1f      	SUBI R17,-1
0016c1 cfd9      	RJMP _0x201AB
                 _0x201AC:
                 ; 0001 064B         if(iretry==3)
0016c2 3013      	CPI  R17,3
0016c3 f429      	BRNE _0x201B0
                 ; 0001 064C         {
                 ; 0001 064D             senderr("#failed_q40->c4_fail\n");
                +
0016c4 e3a9     +LDI R26 , LOW ( 2 * _0x20000 + ( 2235 ) )
0016c5 e0ba     +LDI R27 , HIGH ( 2 * _0x20000 + ( 2235 ) )
                 	__POINTW2FN _0x20000,2235
0016c6 940e 07ae 	CALL _senderr
                 ; 0001 064E             ic4=0;
0016c8 c088      	RJMP _0x201DE
                 ; 0001 064F             memset(&c4,0,sizeof(struct DMED301));    //clear param_set
                 ; 0001 0650             goto set_relays;
                 ; 0001 0651         }
                 ; 0001 0652 
                 ; 0001 0653 
                 ; 0001 0654         if(++ic4==5)    // 5 values acquired, insert obtained mean
                 _0x201B0:
0016c9 5f5f      	SUBI R21,-LOW(1)
0016ca 3055      	CPI  R21,5
0016cb f009      	BREQ PC+2
0016cc c08f      	RJMP _0x201B1
                 ; 0001 0655         {
                 ; 0001 0656             sprintf(msg,"CALL insert_em4(%ld,%ld,", c4.I1, c4.I2);
0016cd e5ee      	LDI  R30,LOW(_msg)
0016ce e0f2      	LDI  R31,HIGH(_msg)
0016cf 93fa      	ST   -Y,R31
0016d0 93ea      	ST   -Y,R30
                +
0016d1 e4ef     +LDI R30 , LOW ( 2 * _0x20000 + ( 2257 ) )
0016d2 e0fa     +LDI R31 , HIGH ( 2 * _0x20000 + ( 2257 ) )
                 	__POINTW1FN _0x20000,2257
0016d3 93fa      	ST   -Y,R31
0016d4 93ea      	ST   -Y,R30
                +
0016d5 85ea     +LDD R30 , Y + 10
0016d6 85fb     +LDD R31 , Y + 10 + 1
0016d7 856c     +LDD R22 , Y + 10 + 2
0016d8 857d     +LDD R23 , Y + 10 + 3
                 	__GETD1S 10
0016d9 940e 1e0b 	CALL __PUTPARD1
                +
0016db 89ea     +LDD R30 , Y + 18
0016dc 89fb     +LDD R31 , Y + 18 + 1
0016dd 896c     +LDD R22 , Y + 18 + 2
0016de 897d     +LDD R23 , Y + 18 + 3
                 	__GETD1S 18
0016df 940e 1e0b 	CALL __PUTPARD1
0016e1 e088      	LDI  R24,8
0016e2 940e 1a9b 	CALL _sprintf
0016e4 962c      	ADIW R28,12
                 ; 0001 0657             sendqry();
0016e5 940e 07eb 	CALL _sendqry
                 ; 0001 0658             #asm("wdr");
0016e7 95a8      	wdr
                 ; 0001 0659             sprintf(msg,"%ld,%ld,%ld,%ld,", c4.I3, c4.P1, c4.P2, c4.P3);
0016e8 e5ee      	LDI  R30,LOW(_msg)
0016e9 e0f2      	LDI  R31,HIGH(_msg)
0016ea 93fa      	ST   -Y,R31
0016eb 93ea      	ST   -Y,R30
                +
0016ec e4e5     +LDI R30 , LOW ( 2 * _0x20000 + ( 967 ) )
0016ed e0f5     +LDI R31 , HIGH ( 2 * _0x20000 + ( 967 ) )
                 	__POINTW1FN _0x20000,967
0016ee 93fa      	ST   -Y,R31
0016ef 93ea      	ST   -Y,R30
                +
0016f0 89ea     +LDD R30 , Y + 18
0016f1 89fb     +LDD R31 , Y + 18 + 1
0016f2 896c     +LDD R22 , Y + 18 + 2
0016f3 897d     +LDD R23 , Y + 18 + 3
                 	__GETD1S 18
0016f4 940e 1e0b 	CALL __PUTPARD1
                +
0016f6 8dea     +LDD R30 , Y + 26
0016f7 8dfb     +LDD R31 , Y + 26 + 1
0016f8 8d6c     +LDD R22 , Y + 26 + 2
0016f9 8d7d     +LDD R23 , Y + 26 + 3
                 	__GETD1S 26
0016fa 940e 1e0b 	CALL __PUTPARD1
                +
0016fc a1ea     +LDD R30 , Y + 34
0016fd a1fb     +LDD R31 , Y + 34 + 1
0016fe a16c     +LDD R22 , Y + 34 + 2
0016ff a17d     +LDD R23 , Y + 34 + 3
                 	__GETD1S 34
001700 940e 1e0b 	CALL __PUTPARD1
                +
001702 a5ea     +LDD R30 , Y + 42
001703 a5fb     +LDD R31 , Y + 42 + 1
001704 a56c     +LDD R22 , Y + 42 + 2
001705 a57d     +LDD R23 , Y + 42 + 3
                 	__GETD1S 42
001706 940e 1e0b 	CALL __PUTPARD1
001708 e180      	LDI  R24,16
001709 940e 1a9b 	CALL _sprintf
00170b 9664      	ADIW R28,20
                 ; 0001 065A             sendqry();
00170c 940e 07eb 	CALL _sendqry
                 ; 0001 065B             #asm("wdr");
00170e 95a8      	wdr
                 ; 0001 065C             sprintf(msg,"%ld,%ld,%ld,%ld,", c4.Q1, c4.Q2, c4.Q3, c4.S1);
00170f e5ee      	LDI  R30,LOW(_msg)
001710 e0f2      	LDI  R31,HIGH(_msg)
001711 93fa      	ST   -Y,R31
001712 93ea      	ST   -Y,R30
                +
001713 e4e5     +LDI R30 , LOW ( 2 * _0x20000 + ( 967 ) )
001714 e0f5     +LDI R31 , HIGH ( 2 * _0x20000 + ( 967 ) )
                 	__POINTW1FN _0x20000,967
001715 93fa      	ST   -Y,R31
001716 93ea      	ST   -Y,R30
                +
001717 a1ea     +LDD R30 , Y + 34
001718 a1fb     +LDD R31 , Y + 34 + 1
001719 a16c     +LDD R22 , Y + 34 + 2
00171a a17d     +LDD R23 , Y + 34 + 3
                 	__GETD1S 34
00171b 940e 1e0b 	CALL __PUTPARD1
                +
00171d a5ea     +LDD R30 , Y + 42
00171e a5fb     +LDD R31 , Y + 42 + 1
00171f a56c     +LDD R22 , Y + 42 + 2
001720 a57d     +LDD R23 , Y + 42 + 3
                 	__GETD1S 42
001721 940e 1e0b 	CALL __PUTPARD1
                +
001723 a9ea     +LDD R30 , Y + 50
001724 a9fb     +LDD R31 , Y + 50 + 1
001725 a96c     +LDD R22 , Y + 50 + 2
001726 a97d     +LDD R23 , Y + 50 + 3
                 	__GETD1S 50
001727 940e 1e0b 	CALL __PUTPARD1
                +
001729 adea     +LDD R30 , Y + 58
00172a adfb     +LDD R31 , Y + 58 + 1
00172b ad6c     +LDD R22 , Y + 58 + 2
00172c ad7d     +LDD R23 , Y + 58 + 3
                 	__GETD1S 58
00172d 940e 1e0b 	CALL __PUTPARD1
00172f e180      	LDI  R24,16
001730 940e 1a9b 	CALL _sprintf
001732 9664      	ADIW R28,20
                 ; 0001 065D             sendqry();
001733 940e 07eb 	CALL _sendqry
                 ; 0001 065E             #asm("wdr");
001735 95a8      	wdr
                 ; 0001 065F             sprintf(msg,"%ld,%ld);\n", c4.S2, c4.S3);
001736 e5ee      	LDI  R30,LOW(_msg)
001737 e0f2      	LDI  R31,HIGH(_msg)
001738 93fa      	ST   -Y,R31
001739 93ea      	ST   -Y,R30
                +
00173a ebeb     +LDI R30 , LOW ( 2 * _0x20000 + ( 317 ) )
00173b e0f2     +LDI R31 , HIGH ( 2 * _0x20000 + ( 317 ) )
                 	__POINTW1FN _0x20000,317
00173c 93fa      	ST   -Y,R31
00173d 93ea      	ST   -Y,R30
                +
00173e a9ea     +LDD R30 , Y + 50
00173f a9fb     +LDD R31 , Y + 50 + 1
001740 a96c     +LDD R22 , Y + 50 + 2
001741 a97d     +LDD R23 , Y + 50 + 3
                 	__GETD1S 50
001742 940e 1e0b 	CALL __PUTPARD1
                +
001744 adea     +LDD R30 , Y + 58
001745 adfb     +LDD R31 , Y + 58 + 1
001746 ad6c     +LDD R22 , Y + 58 + 2
001747 ad7d     +LDD R23 , Y + 58 + 3
                 	__GETD1S 58
001748 940e 1e0b 	CALL __PUTPARD1
00174a e088      	LDI  R24,8
00174b 940e 1a9b 	CALL _sprintf
00174d 962c      	ADIW R28,12
                 ; 0001 0660             sendqry();
00174e 940e 07eb 	CALL _sendqry
                 ; 0001 0661             #asm("wdr");
001750 95a8      	wdr
                 ; 0001 0662             ic4=0;
                 _0x201DE:
001751 e050      	LDI  R21,LOW(0)
                 ; 0001 0663             memset(&c4,0,sizeof(struct DMED301));    //clear param_set
001752 01fe      	MOVW R30,R28
001753 9636      	ADIW R30,6
001754 93fa      	ST   -Y,R31
001755 93ea      	ST   -Y,R30
001756 e0e0      	LDI  R30,LOW(0)
001757 93ea      	ST   -Y,R30
001758 e3a0      	LDI  R26,LOW(48)
001759 e0b0      	LDI  R27,0
00175a 940e 1ce2 	CALL _memset
                 ; 0001 0664         }
                 ; 0001 0665 
                 ; 0001 0666 set_relays:
                 _0x201B1:
                 ; 0001 0667         if(pinA!=pinAbak)
                +
00175c 01fe     +MOVW R30 , R28
00175d 55e4     +SUBI R30 , LOW ( - 172 )
00175e 4fff     +SBCI R31 , HIGH ( - 172 )
00175f 81e0     +LD R30 , Z
                 	__GETB1SX 172
001760 91a0 0258 	LDS  R26,_pinA
001762 17ea      	CP   R30,R26
001763 f409      	BRNE PC+2
001764 c04b      	RJMP _0x201B2
                 ; 0001 0668         {
                 ; 0001 0669             pinAreq = pinA;
001765 91e0 0258 	LDS  R30,_pinA
                +
001767 01de     +MOVW R26 , R28
001768 55a5     +SUBI R26 , LOW ( - 171 )
001769 4fbf     +SBCI R27 , HIGH ( - 171 )
00176a 93ec     +ST X , R30
                 	__PUTB1SX 171
                 ; 0001 066A             LRC_TX= -0x05 -0x06 -pinAreq;
                +
00176b 01de     +MOVW R26 , R28
00176c 55a5     +SUBI R26 , LOW ( - 171 )
00176d 4fbf     +SBCI R27 , HIGH ( - 171 )
00176e 91ac     +LD R26 , X
                 	__GETB2SX 171
00176f efe5      	LDI  R30,LOW(245)
001770 1bea      	SUB  R30,R26
                +
001771 01de     +MOVW R26 , R28
001772 55a6     +SUBI R26 , LOW ( - 170 )
001773 4fbf     +SBCI R27 , HIGH ( - 170 )
001774 93ec     +ST X , R30
                 	__PUTB1SX 170
                 ; 0001 066B             sprintf(msg, ":0506000000%02X%02X\r\n", pinAreq,LRC_TX);
001775 e5ee      	LDI  R30,LOW(_msg)
001776 e0f2      	LDI  R31,HIGH(_msg)
001777 93fa      	ST   -Y,R31
001778 93ea      	ST   -Y,R30
                +
001779 e6e8     +LDI R30 , LOW ( 2 * _0x20000 + ( 2282 ) )
00177a e0fa     +LDI R31 , HIGH ( 2 * _0x20000 + ( 2282 ) )
                 	__POINTW1FN _0x20000,2282
00177b 93fa      	ST   -Y,R31
00177c 93ea      	ST   -Y,R30
                +
00177d 01fe     +MOVW R30 , R28
00177e 55e1     +SUBI R30 , LOW ( - 175 )
00177f 4fff     +SBCI R31 , HIGH ( - 175 )
001780 81e0     +LD R30 , Z
                 	__GETB1SX 175
001781 27ff      	CLR  R31
001782 2766      	CLR  R22
001783 2777      	CLR  R23
001784 940e 1e0b 	CALL __PUTPARD1
                +
001786 01fe     +MOVW R30 , R28
001787 54ee     +SUBI R30 , LOW ( - 178 )
001788 4fff     +SBCI R31 , HIGH ( - 178 )
001789 81e0     +LD R30 , Z
                 	__GETB1SX 178
00178a 27ff      	CLR  R31
00178b 2766      	CLR  R22
00178c 2777      	CLR  R23
00178d 940e 1e0b 	CALL __PUTPARD1
00178f e088      	LDI  R24,8
001790 940e 1a9b 	CALL _sprintf
001792 962c      	ADIW R28,12
                 ; 0001 066C 
                 ; 0001 066D             for(iretry=0; iretry<3; iretry++)
001793 e010      	LDI  R17,LOW(0)
                 _0x201B4:
001794 3013      	CPI  R17,3
001795 f458      	BRSH _0x201B5
                 ; 0001 066E             {
                 ; 0001 066F                 if(!ask_listen_validate06())
001796 940e 094d 	CALL _ask_listen_validate06
001798 30e0      	CPI  R30,0
001799 f039      	BREQ _0x201B5
                 ; 0001 0670                     break;
                 ; 0001 0671                 else
                 ; 0001 0672                 {
                 ; 0001 0673 failed_q41:         #asm("wdr");
00179a 95a8      	wdr
                 ; 0001 0674                     senderr("#retry_q41\n");
                +
00179b e7ae     +LDI R26 , LOW ( 2 * _0x20000 + ( 2304 ) )
00179c e0ba     +LDI R27 , HIGH ( 2 * _0x20000 + ( 2304 ) )
                 	__POINTW2FN _0x20000,2304
00179d 940e 07ae 	CALL _senderr
                 ; 0001 0675                 }
                 ; 0001 0676             }
00179f 5f1f      	SUBI R17,-1
0017a0 cff3      	RJMP _0x201B4
                 _0x201B5:
                 ; 0001 0677             if(iretry==3)
0017a1 3013      	CPI  R17,3
0017a2 f429      	BRNE _0x201B9
                 ; 0001 0678                 senderr("#failed_q41\n");
                +
0017a3 e8aa     +LDI R26 , LOW ( 2 * _0x20000 + ( 2316 ) )
0017a4 e0ba     +LDI R27 , HIGH ( 2 * _0x20000 + ( 2316 ) )
                 	__POINTW2FN _0x20000,2316
0017a5 940e 07ae 	CALL _senderr
                 ; 0001 0679             else
0017a7 c008      	RJMP _0x201BA
                 _0x201B9:
                 ; 0001 067A                 pinAbak=pinAreq;
                +
0017a8 01fe     +MOVW R30 , R28
0017a9 55e5     +SUBI R30 , LOW ( - 171 )
0017aa 4fff     +SBCI R31 , HIGH ( - 171 )
0017ab 81e0     +LD R30 , Z
                 	__GETB1SX 171
                +
0017ac 01de     +MOVW R26 , R28
0017ad 55a4     +SUBI R26 , LOW ( - 172 )
0017ae 4fbf     +SBCI R27 , HIGH ( - 172 )
0017af 93ec     +ST X , R30
                 	__PUTB1SX 172
                 ; 0001 067B         }
                 _0x201BA:
                 ; 0001 067C 
                 ; 0001 067D slave05_params:
                 _0x201B2:
                 ; 0001 067E         strcpyf(msg,":050400010001F5\r\n");
0017b0 e5ee      	LDI  R30,LOW(_msg)
0017b1 e0f2      	LDI  R31,HIGH(_msg)
0017b2 93fa      	ST   -Y,R31
0017b3 93ea      	ST   -Y,R30
                +
0017b4 e9a7     +LDI R26 , LOW ( 2 * _0x20000 + ( 2329 ) )
0017b5 e0ba     +LDI R27 , HIGH ( 2 * _0x20000 + ( 2329 ) )
                 	__POINTW2FN _0x20000,2329
0017b6 940e 1cf2 	CALL _strcpyf
                 ; 0001 067F         for(iretry=0; iretry<3; iretry++)
0017b8 e010      	LDI  R17,LOW(0)
                 _0x201BD:
0017b9 3013      	CPI  R17,3
0017ba f460      	BRSH _0x201BE
                 ; 0001 0680         {
                 ; 0001 0681             if(!ask_listen_validate04(&s5.powcon))
0017bb 01de      	MOVW R26,R28
0017bc 940e 09e4 	CALL _ask_listen_validate04
0017be 9730      	SBIW R30,0
0017bf f039      	BREQ _0x201BE
                 ; 0001 0682                 break;
                 ; 0001 0683             else
                 ; 0001 0684             {
                 ; 0001 0685 failed_q42:     #asm("wdr");
0017c0 95a8      	wdr
                 ; 0001 0686                 senderr("#retry_q42\n");
                +
0017c1 eaa9     +LDI R26 , LOW ( 2 * _0x20000 + ( 2347 ) )
0017c2 e0ba     +LDI R27 , HIGH ( 2 * _0x20000 + ( 2347 ) )
                 	__POINTW2FN _0x20000,2347
0017c3 940e 07ae 	CALL _senderr
                 ; 0001 0687             }
                 ; 0001 0688         }
0017c5 5f1f      	SUBI R17,-1
0017c6 cff2      	RJMP _0x201BD
                 _0x201BE:
                 ; 0001 0689         if(iretry==3)
0017c7 3013      	CPI  R17,3
0017c8 f429      	BRNE _0x201C2
                 ; 0001 068A             senderr("#failed_q42\n");
                +
0017c9 eba5     +LDI R26 , LOW ( 2 * _0x20000 + ( 2359 ) )
0017ca e0ba     +LDI R27 , HIGH ( 2 * _0x20000 + ( 2359 ) )
                 	__POINTW2FN _0x20000,2359
0017cb 940e 07ae 	CALL _senderr
                 ; 0001 068B         else
0017cd c002      	RJMP _0x201C3
                 _0x201C2:
                 ; 0001 068C             PORTC=s5.powcon;
0017ce 81e8      	LD   R30,Y
0017cf b9e8      	OUT  0x8,R30
                 ; 0001 068D 
                 ; 0001 068E         strcpyf(msg,":050400040001F2\r\n");
                 _0x201C3:
0017d0 e5ee      	LDI  R30,LOW(_msg)
0017d1 e0f2      	LDI  R31,HIGH(_msg)
0017d2 93fa      	ST   -Y,R31
0017d3 93ea      	ST   -Y,R30
                +
0017d4 eca2     +LDI R26 , LOW ( 2 * _0x20000 + ( 2372 ) )
0017d5 e0ba     +LDI R27 , HIGH ( 2 * _0x20000 + ( 2372 ) )
                 	__POINTW2FN _0x20000,2372
0017d6 940e 1cf2 	CALL _strcpyf
                 ; 0001 068F         for(iretry=0; iretry<3; iretry++)
0017d8 e010      	LDI  R17,LOW(0)
                 _0x201C5:
0017d9 3013      	CPI  R17,3
0017da f4f8      	BRSH _0x201C6
                 ; 0001 0690         {
                 ; 0001 0691             if(!ask_listen_validate04(&retval))
0017db 01de      	MOVW R26,R28
0017dc 55aa      	SUBI R26,LOW(-(166))
0017dd 4fbf      	SBCI R27,HIGH(-(166))
0017de 940e 09e4 	CALL _ask_listen_validate04
0017e0 9730      	SBIW R30,0
0017e1 f489      	BRNE _0x201C7
                 ; 0001 0692             {
                 ; 0001 0693                 s5.ain4 += retval/5;
                +
0017e2 01de     +MOVW R26 , R28
0017e3 55aa     +SUBI R26 , LOW ( - 166 )
0017e4 4fbf     +SBCI R27 , HIGH ( - 166 )
0017e5 900d     +LD R0 , X +
0017e6 91bc     +LD R27 , X
0017e7 2da0     +MOV R26 , R0
                 	__GETW2SX 166
0017e8 e0e5      	LDI  R30,LOW(5)
0017e9 e0f0      	LDI  R31,HIGH(5)
0017ea 940e 1dbe 	CALL __DIVW21U
0017ec 81aa      	LDD  R26,Y+2
0017ed 81bb      	LDD  R27,Y+2+1
0017ee 0fea      	ADD  R30,R26
0017ef 1ffb      	ADC  R31,R27
0017f0 83ea      	STD  Y+2,R30
0017f1 83fb      	STD  Y+2+1,R31
                 ; 0001 0694                 break;
0017f2 c007      	RJMP _0x201C6
                 ; 0001 0695             }
                 ; 0001 0696             else
                 _0x201C7:
                 ; 0001 0697             {
                 ; 0001 0698 failed_q43:     #asm("wdr");
0017f3 95a8      	wdr
                 ; 0001 0699                 senderr("#retry_q43\n");
                +
0017f4 eda4     +LDI R26 , LOW ( 2 * _0x20000 + ( 2390 ) )
0017f5 e0ba     +LDI R27 , HIGH ( 2 * _0x20000 + ( 2390 ) )
                 	__POINTW2FN _0x20000,2390
0017f6 940e 07ae 	CALL _senderr
                 ; 0001 069A             }
                 ; 0001 069B         }
0017f8 5f1f      	SUBI R17,-1
0017f9 cfdf      	RJMP _0x201C5
                 _0x201C6:
                 ; 0001 069C         if(iretry==3)
0017fa 3013      	CPI  R17,3
0017fb f429      	BRNE _0x201CA
                 ; 0001 069D         {
                 ; 0001 069E             senderr("#failed_q43->s5_fail\n");
                +
0017fc eea0     +LDI R26 , LOW ( 2 * _0x20000 + ( 2402 ) )
0017fd e0ba     +LDI R27 , HIGH ( 2 * _0x20000 + ( 2402 ) )
                 	__POINTW2FN _0x20000,2402
0017fe 940e 07ae 	CALL _senderr
                 ; 0001 069F             is5=0;
001800 c05d      	RJMP _0x201DF
                 ; 0001 06A0             memset(&s5,0,sizeof(struct Slave05));    //clear param_set
                 ; 0001 06A1             goto end_acquisition_cycle;
                 ; 0001 06A2         }
                 ; 0001 06A3 
                 ; 0001 06A4         strcpyf(msg,":050400050001F1\r\n");
                 _0x201CA:
001801 e5ee      	LDI  R30,LOW(_msg)
001802 e0f2      	LDI  R31,HIGH(_msg)
001803 93fa      	ST   -Y,R31
001804 93ea      	ST   -Y,R30
                +
001805 efa6     +LDI R26 , LOW ( 2 * _0x20000 + ( 2424 ) )
001806 e0ba     +LDI R27 , HIGH ( 2 * _0x20000 + ( 2424 ) )
                 	__POINTW2FN _0x20000,2424
001807 940e 1cf2 	CALL _strcpyf
                 ; 0001 06A5         for(iretry=0; iretry<3; iretry++)
001809 e010      	LDI  R17,LOW(0)
                 _0x201CD:
00180a 3013      	CPI  R17,3
00180b f4f8      	BRSH _0x201CE
                 ; 0001 06A6         {
                 ; 0001 06A7             if(!ask_listen_validate04(&retval))
00180c 01de      	MOVW R26,R28
00180d 55aa      	SUBI R26,LOW(-(166))
00180e 4fbf      	SBCI R27,HIGH(-(166))
00180f 940e 09e4 	CALL _ask_listen_validate04
001811 9730      	SBIW R30,0
001812 f489      	BRNE _0x201CF
                 ; 0001 06A8             {
                 ; 0001 06A9                 s5.ain5 += retval/5;
                +
001813 01de     +MOVW R26 , R28
001814 55aa     +SUBI R26 , LOW ( - 166 )
001815 4fbf     +SBCI R27 , HIGH ( - 166 )
001816 900d     +LD R0 , X +
001817 91bc     +LD R27 , X
001818 2da0     +MOV R26 , R0
                 	__GETW2SX 166
001819 e0e5      	LDI  R30,LOW(5)
00181a e0f0      	LDI  R31,HIGH(5)
00181b 940e 1dbe 	CALL __DIVW21U
00181d 81ac      	LDD  R26,Y+4
00181e 81bd      	LDD  R27,Y+4+1
00181f 0fea      	ADD  R30,R26
001820 1ffb      	ADC  R31,R27
001821 83ec      	STD  Y+4,R30
001822 83fd      	STD  Y+4+1,R31
                 ; 0001 06AA                 break;
001823 c007      	RJMP _0x201CE
                 ; 0001 06AB             }
                 ; 0001 06AC             else
                 _0x201CF:
                 ; 0001 06AD             {
                 ; 0001 06AE failed_q44:     #asm("wdr");
001824 95a8      	wdr
                 ; 0001 06AF                 senderr("#retry_q44\n");
                +
001825 e0a8     +LDI R26 , LOW ( 2 * _0x20000 + ( 2442 ) )
001826 e0bb     +LDI R27 , HIGH ( 2 * _0x20000 + ( 2442 ) )
                 	__POINTW2FN _0x20000,2442
001827 940e 07ae 	CALL _senderr
                 ; 0001 06B0             }
                 ; 0001 06B1         }
001829 5f1f      	SUBI R17,-1
00182a cfdf      	RJMP _0x201CD
                 _0x201CE:
                 ; 0001 06B2         if(iretry==3)
00182b 3013      	CPI  R17,3
00182c f429      	BRNE _0x201D2
                 ; 0001 06B3         {
                 ; 0001 06B4             senderr("#failed_q44->s5_fail\n");
                +
00182d e1a4     +LDI R26 , LOW ( 2 * _0x20000 + ( 2454 ) )
00182e e0bb     +LDI R27 , HIGH ( 2 * _0x20000 + ( 2454 ) )
                 	__POINTW2FN _0x20000,2454
00182f 940e 07ae 	CALL _senderr
                 ; 0001 06B5             is5=0;
001831 c02c      	RJMP _0x201DF
                 ; 0001 06B6             memset(&s5,0,sizeof(struct Slave05));    //clear param_set
                 ; 0001 06B7             goto end_acquisition_cycle;
                 ; 0001 06B8         }
                 ; 0001 06B9 
                 ; 0001 06BA         if(++is5==5)    // 5 values acquired, insert obtained mean
                 _0x201D2:
001832 5f4f      	SUBI R20,-LOW(1)
001833 3045      	CPI  R20,5
001834 f599      	BRNE _0x201D3
                 ; 0001 06BB         {
                 ; 0001 06BC             sprintf(msg,"CALL insert_slave5(%d,", s5.ain4);
001835 e5ee      	LDI  R30,LOW(_msg)
001836 e0f2      	LDI  R31,HIGH(_msg)
001837 93fa      	ST   -Y,R31
001838 93ea      	ST   -Y,R30
                +
001839 e2ea     +LDI R30 , LOW ( 2 * _0x20000 + ( 2476 ) )
00183a e0fb     +LDI R31 , HIGH ( 2 * _0x20000 + ( 2476 ) )
                 	__POINTW1FN _0x20000,2476
00183b 93fa      	ST   -Y,R31
00183c 93ea      	ST   -Y,R30
00183d 81ee      	LDD  R30,Y+6
00183e 81ff      	LDD  R31,Y+6+1
00183f 2766      	CLR  R22
001840 2777      	CLR  R23
001841 940e 1e0b 	CALL __PUTPARD1
001843 e084      	LDI  R24,4
001844 940e 1a9b 	CALL _sprintf
001846 9628      	ADIW R28,8
                 ; 0001 06BD             sendqry();
001847 940e 07eb 	CALL _sendqry
                 ; 0001 06BE             #asm("wdr");
001849 95a8      	wdr
                 ; 0001 06BF             sprintf(msg,"%d);\n", s5.ain5);
00184a e5ee      	LDI  R30,LOW(_msg)
00184b e0f2      	LDI  R31,HIGH(_msg)
00184c 93fa      	ST   -Y,R31
00184d 93ea      	ST   -Y,R30
                +
00184e e4e1     +LDI R30 , LOW ( 2 * _0x20000 + ( 2499 ) )
00184f e0fb     +LDI R31 , HIGH ( 2 * _0x20000 + ( 2499 ) )
                 	__POINTW1FN _0x20000,2499
001850 93fa      	ST   -Y,R31
001851 93ea      	ST   -Y,R30
001852 85e8      	LDD  R30,Y+8
001853 85f9      	LDD  R31,Y+8+1
001854 2766      	CLR  R22
001855 2777      	CLR  R23
001856 940e 1e0b 	CALL __PUTPARD1
001858 e084      	LDI  R24,4
001859 d241      	RCALL _sprintf
00185a 9628      	ADIW R28,8
                 ; 0001 06C0             sendqry();
00185b 940e 07eb 	CALL _sendqry
                 ; 0001 06C1             #asm("wdr");
00185d 95a8      	wdr
                 ; 0001 06C2             is5=0;
                 _0x201DF:
00185e e040      	LDI  R20,LOW(0)
                 ; 0001 06C3             memset(&s5,0,sizeof(struct Slave05));    //clear param_set
00185f 01fe      	MOVW R30,R28
001860 93fa      	ST   -Y,R31
001861 93ea      	ST   -Y,R30
001862 e0e0      	LDI  R30,LOW(0)
001863 93ea      	ST   -Y,R30
001864 e0a6      	LDI  R26,LOW(6)
001865 e0b0      	LDI  R27,0
001866 940e 1ce2 	CALL _memset
                 ; 0001 06C4         }
                 ; 0001 06C5 
                 ; 0001 06C6 end_acquisition_cycle:
                 _0x201D3:
                 ; 0001 06C7         /*do
                 ; 0001 06C8         {
                 ; 0001 06C9             time1 = TCNT1L | (TCNT1H<<8);
                 ; 0001 06CA             #asm("wdr");
                 ; 0001 06CB         }
                 ; 0001 06CC         while (time1 != 0xB71A);*/
                 ; 0001 06CD         while(time1= TCNT1L|(TCNT1H<<8),  time1 != 0xB71A)    #asm("wdr");    //param_set1...4+q41...q44 acquisition sho ...
                 _0x201D4:
001868 91e0 0084 	LDS  R30,132
00186a e0f0      	LDI  R31,0
00186b 01df      	MOVW R26,R30
00186c 91e0 0085 	LDS  R30,133
00186e 2ffe      	MOV  R31,R30
00186f e0e0      	LDI  R30,0
001870 2bea      	OR   R30,R26
001871 2bfb      	OR   R31,R27
                +
001872 01de     +MOVW R26 , R28
001873 55a8     +SUBI R26 , LOW ( - 168 )
001874 4fbf     +SBCI R27 , HIGH ( - 168 )
001875 93ed     +ST X + , R30
001876 93fc     +ST X , R31
                 	__PUTW1SX 168
                +
001877 01de     +MOVW R26 , R28
001878 55a8     +SUBI R26 , LOW ( - 168 )
001879 4fbf     +SBCI R27 , HIGH ( - 168 )
00187a 900d     +LD R0 , X +
00187b 91bc     +LD R27 , X
00187c 2da0     +MOV R26 , R0
                 	__GETW2SX 168
00187d 31aa      	CPI  R26,LOW(0xB71A)
00187e ebe7      	LDI  R30,HIGH(0xB71A)
00187f 07be      	CPC  R27,R30
001880 f011      	BREQ _0x201D6
001881 95a8      	wdr
                 ; 0001 06CE         //while(TCNT1L != OCR1AL  ||  TCNT1H != OCR1AH)    #asm("wdr");    //param_set1...4+q41...q44 acquisition should ...
                 ; 0001 06CF 
                 ; 0001 06D0         if(rx_buffer_overflow1)
001882 cfe5      	RJMP _0x201D4
                 _0x201D6:
001883 9bf1      	SBIS 0x1E,1
001884 c005      	RJMP _0x201D7
                 ; 0001 06D1         {
                 ; 0001 06D2             senderr("#RX1_buffer_overflow");
                +
001885 e4a7     +LDI R26 , LOW ( 2 * _0x20000 + ( 2505 ) )
001886 e0bb     +LDI R27 , HIGH ( 2 * _0x20000 + ( 2505 ) )
                 	__POINTW2FN _0x20000,2505
001887 940e 07ae 	CALL _senderr
                 ; 0001 06D3             rx_buffer_overflow1 = 0;
001889 98f1      	CBI  0x1E,1
                 ; 0001 06D4         }
                 ; 0001 06D5     }
                 _0x201D7:
00188a 940c 0b3f 	JMP  _0x2008E
                 ; 0001 06D6 }
                 _0x201DA:
00188c cfff      	RJMP _0x201DA
                 ; .FEND
                 	#ifndef __SLEEP_DEFINED__
                 	#endif
                 
                 	.CSEG
                 _put_buff_G100:
                 ; .FSTART _put_buff_G100
00188d 93ba      	ST   -Y,R27
00188e 93aa      	ST   -Y,R26
00188f 931a      	ST   -Y,R17
001890 930a      	ST   -Y,R16
001891 81aa      	LDD  R26,Y+2
001892 81bb      	LDD  R27,Y+2+1
001893 9612      	ADIW R26,2
001894 940e 1dfa 	CALL __GETW1P
001896 9730      	SBIW R30,0
001897 f159      	BREQ _0x2000010
001898 81aa      	LDD  R26,Y+2
001899 81bb      	LDD  R27,Y+2+1
00189a 9614      	ADIW R26,4
00189b 940e 1dfa 	CALL __GETW1P
00189d 018f      	MOVW R16,R30
00189e 9730      	SBIW R30,0
00189f f061      	BREQ _0x2000012
                +
0018a0 3002     +CPI R16 , LOW ( 2 )
0018a1 e0e0     +LDI R30 , HIGH ( 2 )
0018a2 071e     +CPC R17 , R30
                 	__CPWRN 16,17,2
0018a3 f098      	BRLO _0x2000013
0018a4 01f8      	MOVW R30,R16
0018a5 9731      	SBIW R30,1
0018a6 018f      	MOVW R16,R30
                +
0018a7 81aa     +LDD R26 , Y + 2
0018a8 81bb     +LDD R27 , Y + 2 + 1
0018a9 9614     +ADIW R26 , 4
0018aa 93ed     +ST X + , R30
0018ab 93fc     +ST X , R31
                 	__PUTW1SNS 2,4
                 _0x2000012:
0018ac 81aa      	LDD  R26,Y+2
0018ad 81bb      	LDD  R27,Y+2+1
0018ae 9612      	ADIW R26,2
0018af 91ed      	LD   R30,X+
0018b0 91fd      	LD   R31,X+
0018b1 9631      	ADIW R30,1
0018b2 93fe      	ST   -X,R31
0018b3 93ee      	ST   -X,R30
0018b4 9731      	SBIW R30,1
0018b5 81ac      	LDD  R26,Y+4
0018b6 83a0      	STD  Z+0,R26
                 _0x2000013:
0018b7 81aa      	LDD  R26,Y+2
0018b8 81bb      	LDD  R27,Y+2+1
0018b9 940e 1dfa 	CALL __GETW1P
0018bb 23ff      	TST  R31
0018bc f02a      	BRMI _0x2000014
0018bd 91ed      	LD   R30,X+
0018be 91fd      	LD   R31,X+
0018bf 9631      	ADIW R30,1
0018c0 93fe      	ST   -X,R31
0018c1 93ee      	ST   -X,R30
                 _0x2000014:
0018c2 c006      	RJMP _0x2000015
                 _0x2000010:
0018c3 81aa      	LDD  R26,Y+2
0018c4 81bb      	LDD  R27,Y+2+1
0018c5 efef      	LDI  R30,LOW(65535)
0018c6 efff      	LDI  R31,HIGH(65535)
0018c7 93ed      	ST   X+,R30
0018c8 93fc      	ST   X,R31
                 _0x2000015:
0018c9 8119      	LDD  R17,Y+1
0018ca 8108      	LDD  R16,Y+0
0018cb 940c 1cf0 	JMP  _0x20A0001
                 ; .FEND
                 __print_G100:
                 ; .FSTART __print_G100
0018cd 93ba      	ST   -Y,R27
0018ce 93aa      	ST   -Y,R26
0018cf 972b      	SBIW R28,11
0018d0 940e 1e14 	CALL __SAVELOCR6
0018d2 e010      	LDI  R17,0
0018d3 89a9      	LDD  R26,Y+17
0018d4 89ba      	LDD  R27,Y+17+1
0018d5 e0e0      	LDI  R30,LOW(0)
0018d6 e0f0      	LDI  R31,HIGH(0)
0018d7 93ed      	ST   X+,R30
0018d8 93fc      	ST   X,R31
                 _0x2000016:
0018d9 89ef      	LDD  R30,Y+23
0018da 8df8      	LDD  R31,Y+23+1
0018db 9631      	ADIW R30,1
0018dc 8bef      	STD  Y+23,R30
0018dd 8ff8      	STD  Y+23+1,R31
0018de 9731      	SBIW R30,1
0018df 91e4      	LPM  R30,Z
0018e0 2f2e      	MOV  R18,R30
0018e1 30e0      	CPI  R30,0
0018e2 f409      	BRNE PC+2
0018e3 c1af      	RJMP _0x2000018
0018e4 2fe1      	MOV  R30,R17
0018e5 30e0      	CPI  R30,0
0018e6 f459      	BRNE _0x200001C
0018e7 3225      	CPI  R18,37
0018e8 f411      	BRNE _0x200001D
0018e9 e011      	LDI  R17,LOW(1)
0018ea c006      	RJMP _0x200001E
                 _0x200001D:
0018eb 932a      	ST   -Y,R18
0018ec 89aa      	LDD  R26,Y+18
0018ed 89bb      	LDD  R27,Y+18+1
0018ee 89ec      	LDD  R30,Y+20
0018ef 89fd      	LDD  R31,Y+20+1
0018f0 9509      	ICALL
                 _0x200001E:
0018f1 c1a0      	RJMP _0x200001B
                 _0x200001C:
0018f2 30e1      	CPI  R30,LOW(0x1)
0018f3 f4c9      	BRNE _0x200001F
0018f4 3225      	CPI  R18,37
0018f5 f439      	BRNE _0x2000020
0018f6 932a      	ST   -Y,R18
0018f7 89aa      	LDD  R26,Y+18
0018f8 89bb      	LDD  R27,Y+18+1
0018f9 89ec      	LDD  R30,Y+20
0018fa 89fd      	LDD  R31,Y+20+1
0018fb 9509      	ICALL
0018fc c194      	RJMP _0x20000D5
                 _0x2000020:
0018fd e012      	LDI  R17,LOW(2)
0018fe e040      	LDI  R20,LOW(0)
0018ff e000      	LDI  R16,LOW(0)
001900 322d      	CPI  R18,45
001901 f411      	BRNE _0x2000021
001902 e001      	LDI  R16,LOW(1)
001903 c18e      	RJMP _0x200001B
                 _0x2000021:
001904 322b      	CPI  R18,43
001905 f411      	BRNE _0x2000022
001906 e24b      	LDI  R20,LOW(43)
001907 c18a      	RJMP _0x200001B
                 _0x2000022:
001908 3220      	CPI  R18,32
001909 f411      	BRNE _0x2000023
00190a e240      	LDI  R20,LOW(32)
00190b c186      	RJMP _0x200001B
                 _0x2000023:
00190c c002      	RJMP _0x2000024
                 _0x200001F:
00190d 30e2      	CPI  R30,LOW(0x2)
00190e f439      	BRNE _0x2000025
                 _0x2000024:
00190f e050      	LDI  R21,LOW(0)
001910 e013      	LDI  R17,LOW(3)
001911 3320      	CPI  R18,48
001912 f411      	BRNE _0x2000026
001913 6800      	ORI  R16,LOW(128)
001914 c17d      	RJMP _0x200001B
                 _0x2000026:
001915 c002      	RJMP _0x2000027
                 _0x2000025:
001916 30e3      	CPI  R30,LOW(0x3)
001917 f491      	BRNE _0x2000028
                 _0x2000027:
001918 3320      	CPI  R18,48
001919 f010      	BRLO _0x200002A
00191a 332a      	CPI  R18,58
00191b f008      	BRLO _0x200002B
                 _0x200002A:
00191c c007      	RJMP _0x2000029
                 _0x200002B:
00191d e0aa      	LDI  R26,LOW(10)
00191e 9f5a      	MUL  R21,R26
00191f 2d50      	MOV  R21,R0
001920 2fe2      	MOV  R30,R18
001921 53e0      	SUBI R30,LOW(48)
001922 0f5e      	ADD  R21,R30
001923 c16e      	RJMP _0x200001B
                 _0x2000029:
001924 362c      	CPI  R18,108
001925 f419      	BRNE _0x200002C
001926 6002      	ORI  R16,LOW(2)
001927 e015      	LDI  R17,LOW(5)
001928 c169      	RJMP _0x200001B
                 _0x200002C:
001929 c003      	RJMP _0x200002D
                 _0x2000028:
00192a 30e5      	CPI  R30,LOW(0x5)
00192b f009      	BREQ PC+2
00192c c165      	RJMP _0x200001B
                 _0x200002D:
00192d 2fe2      	MOV  R30,R18
00192e 36e3      	CPI  R30,LOW(0x63)
00192f f469      	BRNE _0x2000032
001930 89ed      	LDD  R30,Y+21
001931 89fe      	LDD  R31,Y+21+1
001932 9734      	SBIW R30,4
001933 8bed      	STD  Y+21,R30
001934 8bfe      	STD  Y+21+1,R31
001935 81a4      	LDD  R26,Z+4
001936 93aa      	ST   -Y,R26
001937 89aa      	LDD  R26,Y+18
001938 89bb      	LDD  R27,Y+18+1
001939 89ec      	LDD  R30,Y+20
00193a 89fd      	LDD  R31,Y+20+1
00193b 9509      	ICALL
00193c c154      	RJMP _0x2000033
                 _0x2000032:
00193d 37e3      	CPI  R30,LOW(0x73)
00193e f491      	BRNE _0x2000035
00193f 89ed      	LDD  R30,Y+21
001940 89fe      	LDD  R31,Y+21+1
001941 9734      	SBIW R30,4
001942 8bed      	STD  Y+21,R30
001943 8bfe      	STD  Y+21+1,R31
001944 89ad      	LDD  R26,Y+21
001945 89be      	LDD  R27,Y+21+1
001946 9614      	ADIW R26,4
001947 940e 1dfa 	CALL __GETW1P
001949 83ee      	STD  Y+6,R30
00194a 83ff      	STD  Y+6+1,R31
00194b 81ae      	LDD  R26,Y+6
00194c 81bf      	LDD  R27,Y+6+1
00194d 940e 1cff 	CALL _strlen
00194f 2f1e      	MOV  R17,R30
001950 c014      	RJMP _0x2000036
                 _0x2000035:
001951 37e0      	CPI  R30,LOW(0x70)
001952 f4b9      	BRNE _0x2000038
001953 89ed      	LDD  R30,Y+21
001954 89fe      	LDD  R31,Y+21+1
001955 9734      	SBIW R30,4
001956 8bed      	STD  Y+21,R30
001957 8bfe      	STD  Y+21+1,R31
001958 89ad      	LDD  R26,Y+21
001959 89be      	LDD  R27,Y+21+1
00195a 9614      	ADIW R26,4
00195b 940e 1dfa 	CALL __GETW1P
00195d 83ee      	STD  Y+6,R30
00195e 83ff      	STD  Y+6+1,R31
00195f 81ae      	LDD  R26,Y+6
001960 81bf      	LDD  R27,Y+6+1
001961 940e 1d0b 	CALL _strlenf
001963 2f1e      	MOV  R17,R30
001964 6008      	ORI  R16,LOW(8)
                 _0x2000036:
001965 770f      	ANDI R16,LOW(127)
001966 e0e0      	LDI  R30,LOW(0)
001967 8be8      	STD  Y+16,R30
001968 e030      	LDI  R19,LOW(0)
001969 c07f      	RJMP _0x2000039
                 _0x2000038:
00196a 36e4      	CPI  R30,LOW(0x64)
00196b f011      	BREQ _0x200003C
00196c 36e9      	CPI  R30,LOW(0x69)
00196d f411      	BRNE _0x200003D
                 _0x200003C:
00196e 6004      	ORI  R16,LOW(4)
00196f c002      	RJMP _0x200003E
                 _0x200003D:
001970 37e5      	CPI  R30,LOW(0x75)
001971 f4c1      	BRNE _0x200003F
                 _0x200003E:
001972 e0ea      	LDI  R30,LOW(10)
001973 8be8      	STD  Y+16,R30
001974 ff01      	SBRS R16,1
001975 c00a      	RJMP _0x2000040
                +
001976 e0e0     +LDI R30 , LOW ( 0x3B9ACA00 )
001977 ecfa     +LDI R31 , HIGH ( 0x3B9ACA00 )
001978 e96a     +LDI R22 , BYTE3 ( 0x3B9ACA00 )
001979 e37b     +LDI R23 , BYTE4 ( 0x3B9ACA00 )
                 	__GETD1N 0x3B9ACA00
                +
00197a 87e8     +STD Y + 8 , R30
00197b 87f9     +STD Y + 8 + 1 , R31
00197c 876a     +STD Y + 8 + 2 , R22
00197d 877b     +STD Y + 8 + 3 , R23
                 	__PUTD1S 8
00197e e01a      	LDI  R17,LOW(10)
00197f c028      	RJMP _0x2000041
                 _0x2000040:
                +
001980 e1e0     +LDI R30 , LOW ( 0x2710 )
001981 e2f7     +LDI R31 , HIGH ( 0x2710 )
001982 e060     +LDI R22 , BYTE3 ( 0x2710 )
001983 e070     +LDI R23 , BYTE4 ( 0x2710 )
                 	__GETD1N 0x2710
                +
001984 87e8     +STD Y + 8 , R30
001985 87f9     +STD Y + 8 + 1 , R31
001986 876a     +STD Y + 8 + 2 , R22
001987 877b     +STD Y + 8 + 3 , R23
                 	__PUTD1S 8
001988 e015      	LDI  R17,LOW(5)
001989 c01e      	RJMP _0x2000041
                 _0x200003F:
00198a 35e8      	CPI  R30,LOW(0x58)
00198b f411      	BRNE _0x2000043
00198c 6008      	ORI  R16,LOW(8)
00198d c003      	RJMP _0x2000044
                 _0x2000043:
00198e 37e8      	CPI  R30,LOW(0x78)
00198f f009      	BREQ PC+2
001990 c100      	RJMP _0x2000077
                 _0x2000044:
001991 e1e0      	LDI  R30,LOW(16)
001992 8be8      	STD  Y+16,R30
001993 ff01      	SBRS R16,1
001994 c00a      	RJMP _0x2000046
                +
001995 e0e0     +LDI R30 , LOW ( 0x10000000 )
001996 e0f0     +LDI R31 , HIGH ( 0x10000000 )
001997 e060     +LDI R22 , BYTE3 ( 0x10000000 )
001998 e170     +LDI R23 , BYTE4 ( 0x10000000 )
                 	__GETD1N 0x10000000
                +
001999 87e8     +STD Y + 8 , R30
00199a 87f9     +STD Y + 8 + 1 , R31
00199b 876a     +STD Y + 8 + 2 , R22
00199c 877b     +STD Y + 8 + 3 , R23
                 	__PUTD1S 8
00199d e018      	LDI  R17,LOW(8)
00199e c009      	RJMP _0x2000041
                 _0x2000046:
                +
00199f e0e0     +LDI R30 , LOW ( 0x1000 )
0019a0 e1f0     +LDI R31 , HIGH ( 0x1000 )
0019a1 e060     +LDI R22 , BYTE3 ( 0x1000 )
0019a2 e070     +LDI R23 , BYTE4 ( 0x1000 )
                 	__GETD1N 0x1000
                +
0019a3 87e8     +STD Y + 8 , R30
0019a4 87f9     +STD Y + 8 + 1 , R31
0019a5 876a     +STD Y + 8 + 2 , R22
0019a6 877b     +STD Y + 8 + 3 , R23
                 	__PUTD1S 8
0019a7 e014      	LDI  R17,LOW(4)
                 _0x2000041:
0019a8 ff01      	SBRS R16,1
0019a9 c00b      	RJMP _0x2000047
0019aa 89ed      	LDD  R30,Y+21
0019ab 89fe      	LDD  R31,Y+21+1
0019ac 9734      	SBIW R30,4
0019ad 8bed      	STD  Y+21,R30
0019ae 8bfe      	STD  Y+21+1,R31
0019af 89ad      	LDD  R26,Y+21
0019b0 89be      	LDD  R27,Y+21+1
0019b1 9614      	ADIW R26,4
0019b2 940e 1dfe 	CALL __GETD1P
0019b4 c01b      	RJMP _0x20000D6
                 _0x2000047:
0019b5 ff02      	SBRS R16,2
0019b6 c00d      	RJMP _0x2000049
0019b7 89ed      	LDD  R30,Y+21
0019b8 89fe      	LDD  R31,Y+21+1
0019b9 9734      	SBIW R30,4
0019ba 8bed      	STD  Y+21,R30
0019bb 8bfe      	STD  Y+21+1,R31
0019bc 89ad      	LDD  R26,Y+21
0019bd 89be      	LDD  R27,Y+21+1
0019be 9614      	ADIW R26,4
0019bf 940e 1dfa 	CALL __GETW1P
0019c1 940e 1d99 	CALL __CWD1
0019c3 c00c      	RJMP _0x20000D6
                 _0x2000049:
0019c4 89ed      	LDD  R30,Y+21
0019c5 89fe      	LDD  R31,Y+21+1
0019c6 9734      	SBIW R30,4
0019c7 8bed      	STD  Y+21,R30
0019c8 8bfe      	STD  Y+21+1,R31
0019c9 89ad      	LDD  R26,Y+21
0019ca 89be      	LDD  R27,Y+21+1
0019cb 9614      	ADIW R26,4
0019cc 940e 1dfa 	CALL __GETW1P
0019ce 2766      	CLR  R22
0019cf 2777      	CLR  R23
                 _0x20000D6:
                +
0019d0 87ec     +STD Y + 12 , R30
0019d1 87fd     +STD Y + 12 + 1 , R31
0019d2 876e     +STD Y + 12 + 2 , R22
0019d3 877f     +STD Y + 12 + 3 , R23
                 	__PUTD1S 12
0019d4 ff02      	SBRS R16,2
0019d5 c013      	RJMP _0x200004B
0019d6 85af      	LDD  R26,Y+15
0019d7 23aa      	TST  R26
0019d8 f45a      	BRPL _0x200004C
                +
0019d9 85ec     +LDD R30 , Y + 12
0019da 85fd     +LDD R31 , Y + 12 + 1
0019db 856e     +LDD R22 , Y + 12 + 2
0019dc 857f     +LDD R23 , Y + 12 + 3
                 	__GETD1S 12
0019dd 940e 1d80 	CALL __ANEGD1
                +
0019df 87ec     +STD Y + 12 , R30
0019e0 87fd     +STD Y + 12 + 1 , R31
0019e1 876e     +STD Y + 12 + 2 , R22
0019e2 877f     +STD Y + 12 + 3 , R23
                 	__PUTD1S 12
0019e3 e24d      	LDI  R20,LOW(45)
                 _0x200004C:
0019e4 3040      	CPI  R20,0
0019e5 f011      	BREQ _0x200004D
0019e6 5f1f      	SUBI R17,-LOW(1)
0019e7 c001      	RJMP _0x200004E
                 _0x200004D:
0019e8 7f0b      	ANDI R16,LOW(251)
                 _0x200004E:
                 _0x200004B:
                 _0x2000039:
0019e9 fd00      	SBRC R16,0
0019ea c015      	RJMP _0x200004F
                 _0x2000050:
0019eb 1715      	CP   R17,R21
0019ec f498      	BRSH _0x2000052
0019ed ff07      	SBRS R16,7
0019ee c008      	RJMP _0x2000053
0019ef ff02      	SBRS R16,2
0019f0 c004      	RJMP _0x2000054
0019f1 7f0b      	ANDI R16,LOW(251)
0019f2 2f24      	MOV  R18,R20
0019f3 5011      	SUBI R17,LOW(1)
0019f4 c001      	RJMP _0x2000055
                 _0x2000054:
0019f5 e320      	LDI  R18,LOW(48)
                 _0x2000055:
0019f6 c001      	RJMP _0x2000056
                 _0x2000053:
0019f7 e220      	LDI  R18,LOW(32)
                 _0x2000056:
0019f8 932a      	ST   -Y,R18
0019f9 89aa      	LDD  R26,Y+18
0019fa 89bb      	LDD  R27,Y+18+1
0019fb 89ec      	LDD  R30,Y+20
0019fc 89fd      	LDD  R31,Y+20+1
0019fd 9509      	ICALL
0019fe 5051      	SUBI R21,LOW(1)
0019ff cfeb      	RJMP _0x2000050
                 _0x2000052:
                 _0x200004F:
001a00 2f31      	MOV  R19,R17
001a01 89e8      	LDD  R30,Y+16
001a02 30e0      	CPI  R30,0
001a03 f4d9      	BRNE _0x2000057
                 _0x2000058:
001a04 3030      	CPI  R19,0
001a05 f0c1      	BREQ _0x200005A
001a06 ff03      	SBRS R16,3
001a07 c006      	RJMP _0x200005B
001a08 81ee      	LDD  R30,Y+6
001a09 81ff      	LDD  R31,Y+6+1
001a0a 9125      	LPM  R18,Z+
001a0b 83ee      	STD  Y+6,R30
001a0c 83ff      	STD  Y+6+1,R31
001a0d c005      	RJMP _0x200005C
                 _0x200005B:
001a0e 81ae      	LDD  R26,Y+6
001a0f 81bf      	LDD  R27,Y+6+1
001a10 912d      	LD   R18,X+
001a11 83ae      	STD  Y+6,R26
001a12 83bf      	STD  Y+6+1,R27
                 _0x200005C:
001a13 932a      	ST   -Y,R18
001a14 89aa      	LDD  R26,Y+18
001a15 89bb      	LDD  R27,Y+18+1
001a16 89ec      	LDD  R30,Y+20
001a17 89fd      	LDD  R31,Y+20+1
001a18 9509      	ICALL
001a19 3050      	CPI  R21,0
001a1a f009      	BREQ _0x200005D
001a1b 5051      	SUBI R21,LOW(1)
                 _0x200005D:
001a1c 5031      	SUBI R19,LOW(1)
001a1d cfe6      	RJMP _0x2000058
                 _0x200005A:
001a1e c065      	RJMP _0x200005E
                 _0x2000057:
                 _0x2000060:
                +
001a1f 85e8     +LDD R30 , Y + 8
001a20 85f9     +LDD R31 , Y + 8 + 1
001a21 856a     +LDD R22 , Y + 8 + 2
001a22 857b     +LDD R23 , Y + 8 + 3
                 	__GETD1S 8
                +
001a23 85ac     +LDD R26 , Y + 12
001a24 85bd     +LDD R27 , Y + 12 + 1
001a25 858e     +LDD R24 , Y + 12 + 2
001a26 859f     +LDD R25 , Y + 12 + 3
                 	__GETD2S 12
001a27 940e 1dd1 	CALL __DIVD21U
001a29 2f2e      	MOV  R18,R30
001a2a 302a      	CPI  R18,10
001a2b f030      	BRLO _0x2000062
001a2c ff03      	SBRS R16,3
001a2d c002      	RJMP _0x2000063
001a2e 5c29      	SUBI R18,-LOW(55)
001a2f c001      	RJMP _0x2000064
                 _0x2000063:
001a30 5a29      	SUBI R18,-LOW(87)
                 _0x2000064:
001a31 c001      	RJMP _0x2000065
                 _0x2000062:
001a32 5d20      	SUBI R18,-LOW(48)
                 _0x2000065:
001a33 fd04      	SBRC R16,4
001a34 c025      	RJMP _0x2000067
001a35 3321      	CPI  R18,49
001a36 f460      	BRSH _0x2000069
                +
001a37 85a8     +LDD R26 , Y + 8
001a38 85b9     +LDD R27 , Y + 8 + 1
001a39 858a     +LDD R24 , Y + 8 + 2
001a3a 859b     +LDD R25 , Y + 8 + 3
                 	__GETD2S 8
                +
001a3b 30a1     +CPI R26 , LOW ( 0x1 )
001a3c e0e0     +LDI R30 , HIGH ( 0x1 )
001a3d 07be     +CPC R27 , R30
001a3e e0e0     +LDI R30 , BYTE3 ( 0x1 )
001a3f 078e     +CPC R24 , R30
001a40 e0e0     +LDI R30 , BYTE4 ( 0x1 )
001a41 079e     +CPC R25 , R30
                 	__CPD2N 0x1
001a42 f409      	BRNE _0x2000068
                 _0x2000069:
001a43 c009      	RJMP _0x200006B
                 _0x2000068:
001a44 1753      	CP   R21,R19
001a45 f010      	BRLO _0x200006D
001a46 ff00      	SBRS R16,0
001a47 c001      	RJMP _0x200006E
                 _0x200006D:
001a48 c01a      	RJMP _0x200006C
                 _0x200006E:
001a49 e220      	LDI  R18,LOW(32)
001a4a ff07      	SBRS R16,7
001a4b c00e      	RJMP _0x200006F
001a4c e320      	LDI  R18,LOW(48)
                 _0x200006B:
001a4d 6100      	ORI  R16,LOW(16)
001a4e ff02      	SBRS R16,2
001a4f c00a      	RJMP _0x2000070
001a50 7f0b      	ANDI R16,LOW(251)
001a51 934a      	ST   -Y,R20
001a52 89aa      	LDD  R26,Y+18
001a53 89bb      	LDD  R27,Y+18+1
001a54 89ec      	LDD  R30,Y+20
001a55 89fd      	LDD  R31,Y+20+1
001a56 9509      	ICALL
001a57 3050      	CPI  R21,0
001a58 f009      	BREQ _0x2000071
001a59 5051      	SUBI R21,LOW(1)
                 _0x2000071:
                 _0x2000070:
                 _0x200006F:
                 _0x2000067:
001a5a 932a      	ST   -Y,R18
001a5b 89aa      	LDD  R26,Y+18
001a5c 89bb      	LDD  R27,Y+18+1
001a5d 89ec      	LDD  R30,Y+20
001a5e 89fd      	LDD  R31,Y+20+1
001a5f 9509      	ICALL
001a60 3050      	CPI  R21,0
001a61 f009      	BREQ _0x2000072
001a62 5051      	SUBI R21,LOW(1)
                 _0x2000072:
                 _0x200006C:
001a63 5031      	SUBI R19,LOW(1)
                +
001a64 85e8     +LDD R30 , Y + 8
001a65 85f9     +LDD R31 , Y + 8 + 1
001a66 856a     +LDD R22 , Y + 8 + 2
001a67 857b     +LDD R23 , Y + 8 + 3
                 	__GETD1S 8
                +
001a68 85ac     +LDD R26 , Y + 12
001a69 85bd     +LDD R27 , Y + 12 + 1
001a6a 858e     +LDD R24 , Y + 12 + 2
001a6b 859f     +LDD R25 , Y + 12 + 3
                 	__GETD2S 12
001a6c 940e 1df6 	CALL __MODD21U
                +
001a6e 87ec     +STD Y + 12 , R30
001a6f 87fd     +STD Y + 12 + 1 , R31
001a70 876e     +STD Y + 12 + 2 , R22
001a71 877f     +STD Y + 12 + 3 , R23
                 	__PUTD1S 12
001a72 89e8      	LDD  R30,Y+16
                +
001a73 85a8     +LDD R26 , Y + 8
001a74 85b9     +LDD R27 , Y + 8 + 1
001a75 858a     +LDD R24 , Y + 8 + 2
001a76 859b     +LDD R25 , Y + 8 + 3
                 	__GETD2S 8
001a77 27ff      	CLR  R31
001a78 2766      	CLR  R22
001a79 2777      	CLR  R23
001a7a 940e 1dd1 	CALL __DIVD21U
                +
001a7c 87e8     +STD Y + 8 , R30
001a7d 87f9     +STD Y + 8 + 1 , R31
001a7e 876a     +STD Y + 8 + 2 , R22
001a7f 877b     +STD Y + 8 + 3 , R23
                 	__PUTD1S 8
001a80 940e 1e10 	CALL __CPD10
001a82 f009      	BREQ _0x2000061
001a83 cf9b      	RJMP _0x2000060
                 _0x2000061:
                 _0x200005E:
001a84 ff00      	SBRS R16,0
001a85 c00b      	RJMP _0x2000073
                 _0x2000074:
001a86 3050      	CPI  R21,0
001a87 f049      	BREQ _0x2000076
001a88 5051      	SUBI R21,LOW(1)
001a89 e2e0      	LDI  R30,LOW(32)
001a8a 93ea      	ST   -Y,R30
001a8b 89aa      	LDD  R26,Y+18
001a8c 89bb      	LDD  R27,Y+18+1
001a8d 89ec      	LDD  R30,Y+20
001a8e 89fd      	LDD  R31,Y+20+1
001a8f 9509      	ICALL
001a90 cff5      	RJMP _0x2000074
                 _0x2000076:
                 _0x2000073:
                 _0x2000077:
                 _0x2000033:
                 _0x20000D5:
001a91 e010      	LDI  R17,LOW(0)
                 _0x200001B:
001a92 ce46      	RJMP _0x2000016
                 _0x2000018:
001a93 89a9      	LDD  R26,Y+17
001a94 89ba      	LDD  R27,Y+17+1
001a95 940e 1dfa 	CALL __GETW1P
001a97 940e 1e1b 	CALL __LOADLOCR6
001a99 9669      	ADIW R28,25
001a9a 9508      	RET
                 ; .FEND
                 _sprintf:
                 ; .FSTART _sprintf
001a9b 92ff      	PUSH R15
001a9c 2ef8      	MOV  R15,R24
001a9d 9726      	SBIW R28,6
001a9e 940e 1e16 	CALL __SAVELOCR4
001aa0 01de      	MOVW R26,R28
001aa1 961c      	ADIW R26,12
001aa2 940e 1d77 	CALL __ADDW2R15
001aa4 940e 1dfa 	CALL __GETW1P
001aa6 9730      	SBIW R30,0
001aa7 f419      	BRNE _0x2000078
001aa8 efef      	LDI  R30,LOW(65535)
001aa9 efff      	LDI  R31,HIGH(65535)
001aaa c027      	RJMP _0x20A0005
                 _0x2000078:
001aab 01de      	MOVW R26,R28
001aac 9616      	ADIW R26,6
001aad 940e 1d77 	CALL __ADDW2R15
001aaf 018d      	MOVW R16,R26
001ab0 01de      	MOVW R26,R28
001ab1 961c      	ADIW R26,12
001ab2 940e 1d77 	CALL __ADDW2R15
001ab4 940e 1dfa 	CALL __GETW1P
001ab6 83ee      	STD  Y+6,R30
001ab7 83ff      	STD  Y+6+1,R31
001ab8 e0e0      	LDI  R30,LOW(0)
001ab9 87e8      	STD  Y+8,R30
001aba 87e9      	STD  Y+8+1,R30
001abb 01de      	MOVW R26,R28
001abc 961a      	ADIW R26,10
001abd 940e 1d77 	CALL __ADDW2R15
001abf 940e 1dfa 	CALL __GETW1P
001ac1 93fa      	ST   -Y,R31
001ac2 93ea      	ST   -Y,R30
001ac3 931a      	ST   -Y,R17
001ac4 930a      	ST   -Y,R16
001ac5 e8ed      	LDI  R30,LOW(_put_buff_G100)
001ac6 e1f8      	LDI  R31,HIGH(_put_buff_G100)
001ac7 93fa      	ST   -Y,R31
001ac8 93ea      	ST   -Y,R30
001ac9 01de      	MOVW R26,R28
001aca 961a      	ADIW R26,10
001acb de01      	RCALL __print_G100
001acc 019f      	MOVW R18,R30
001acd 81ae      	LDD  R26,Y+6
001ace 81bf      	LDD  R27,Y+6+1
001acf e0e0      	LDI  R30,LOW(0)
001ad0 93ec      	ST   X,R30
001ad1 01f9      	MOVW R30,R18
                 _0x20A0005:
001ad2 940e 1e1d 	CALL __LOADLOCR4
001ad4 962a      	ADIW R28,10
001ad5 90ff      	POP  R15
001ad6 9508      	RET
                 ; .FEND
                 _get_buff_G100:
                 ; .FSTART _get_buff_G100
001ad7 93ba      	ST   -Y,R27
001ad8 93aa      	ST   -Y,R26
001ad9 931a      	ST   -Y,R17
001ada 81a9      	LDD  R26,Y+1
001adb 81ba      	LDD  R27,Y+1+1
001adc e0e0      	LDI  R30,LOW(0)
001add 93ec      	ST   X,R30
001ade 81ab      	LDD  R26,Y+3
001adf 81bc      	LDD  R27,Y+3+1
001ae0 91ec      	LD   R30,X
001ae1 2f1e      	MOV  R17,R30
001ae2 30e0      	CPI  R30,0
001ae3 f019      	BREQ _0x2000080
001ae4 e0e0      	LDI  R30,LOW(0)
001ae5 93ec      	ST   X,R30
001ae6 c019      	RJMP _0x2000081
                 _0x2000080:
001ae7 81a9      	LDD  R26,Y+1
001ae8 81ba      	LDD  R27,Y+1+1
001ae9 9611      	ADIW R26,1
001aea 940e 1dfa 	CALL __GETW1P
001aec 9730      	SBIW R30,0
001aed f089      	BREQ _0x2000082
001aee 81e9      	LDD  R30,Y+1
001aef 81fa      	LDD  R31,Y+1+1
001af0 81a1      	LDD  R26,Z+1
001af1 81b2      	LDD  R27,Z+2
001af2 91ec      	LD   R30,X
001af3 2f1e      	MOV  R17,R30
001af4 30e0      	CPI  R30,0
001af5 f041      	BREQ _0x2000083
001af6 81a9      	LDD  R26,Y+1
001af7 81ba      	LDD  R27,Y+1+1
001af8 9611      	ADIW R26,1
001af9 91ed      	LD   R30,X+
001afa 91fd      	LD   R31,X+
001afb 9631      	ADIW R30,1
001afc 93fe      	ST   -X,R31
001afd 93ee      	ST   -X,R30
                 _0x2000083:
001afe c001      	RJMP _0x2000084
                 _0x2000082:
001aff e010      	LDI  R17,LOW(0)
                 _0x2000084:
                 _0x2000081:
001b00 2fe1      	MOV  R30,R17
001b01 8118      	LDD  R17,Y+0
001b02 c1ed      	RJMP _0x20A0001
                 ; .FEND
                 __scanf_G100:
                 ; .FSTART __scanf_G100
001b03 92ff      	PUSH R15
001b04 93ba      	ST   -Y,R27
001b05 93aa      	ST   -Y,R26
001b06 9726      	SBIW R28,6
001b07 940e 1e14 	CALL __SAVELOCR6
001b09 e0e0      	LDI  R30,LOW(0)
001b0a e0f0      	LDI  R31,HIGH(0)
001b0b 87ea      	STD  Y+10,R30
001b0c 87fb      	STD  Y+10+1,R31
001b0d 2f4e      	MOV  R20,R30
                 _0x2000085:
001b0e 89ea      	LDD  R30,Y+18
001b0f 89fb      	LDD  R31,Y+18+1
001b10 9631      	ADIW R30,1
001b11 8bea      	STD  Y+18,R30
001b12 8bfb      	STD  Y+18+1,R31
001b13 9731      	SBIW R30,1
001b14 91e4      	LPM  R30,Z
001b15 2f3e      	MOV  R19,R30
001b16 30e0      	CPI  R30,0
001b17 f409      	BRNE PC+2
001b18 c18f      	RJMP _0x2000087
001b19 2fa3      	MOV  R26,R19
001b1a 940e 1d53 	CALL _isspace
001b1c 30e0      	CPI  R30,0
001b1d f0f9      	BREQ _0x2000088
                 _0x2000089:
001b1e b7ed      	IN   R30,SPL
001b1f b7fe      	IN   R31,SPH
001b20 93fa      	ST   -Y,R31
001b21 93ea      	ST   -Y,R30
001b22 934f      	PUSH R20
001b23 85ae      	LDD  R26,Y+14
001b24 85bf      	LDD  R27,Y+14+1
001b25 89e8      	LDD  R30,Y+16
001b26 89f9      	LDD  R31,Y+16+1
001b27 9509      	ICALL
001b28 914f      	POP  R20
001b29 2f3e      	MOV  R19,R30
001b2a 30e0      	CPI  R30,0
001b2b f029      	BREQ _0x200008C
001b2c 2fa3      	MOV  R26,R19
001b2d 940e 1d53 	CALL _isspace
001b2f 30e0      	CPI  R30,0
001b30 f409      	BRNE _0x200008D
                 _0x200008C:
001b31 c009      	RJMP _0x200008B
                 _0x200008D:
001b32 85ac      	LDD  R26,Y+12
001b33 85bd      	LDD  R27,Y+12+1
001b34 91ac      	LD   R26,X
001b35 30a0      	CPI  R26,0
001b36 f41c      	BRGE _0x200008E
001b37 efef      	LDI  R30,LOW(65535)
001b38 efff      	LDI  R31,HIGH(65535)
001b39 c170      	RJMP _0x20A0003
                 _0x200008E:
001b3a cfe3      	RJMP _0x2000089
                 _0x200008B:
001b3b 2f43      	MOV  R20,R19
001b3c c16a      	RJMP _0x200008F
                 _0x2000088:
001b3d 3235      	CPI  R19,37
001b3e f009      	BREQ PC+2
001b3f c14a      	RJMP _0x2000090
001b40 e050      	LDI  R21,LOW(0)
                 _0x2000091:
001b41 89ea      	LDD  R30,Y+18
001b42 89fb      	LDD  R31,Y+18+1
001b43 9135      	LPM  R19,Z+
001b44 8bea      	STD  Y+18,R30
001b45 8bfb      	STD  Y+18+1,R31
001b46 3330      	CPI  R19,48
001b47 f010      	BRLO _0x2000095
001b48 333a      	CPI  R19,58
001b49 f008      	BRLO _0x2000094
                 _0x2000095:
001b4a c007      	RJMP _0x2000093
                 _0x2000094:
001b4b e0aa      	LDI  R26,LOW(10)
001b4c 9f5a      	MUL  R21,R26
001b4d 2d50      	MOV  R21,R0
001b4e 2fe3      	MOV  R30,R19
001b4f 53e0      	SUBI R30,LOW(48)
001b50 0f5e      	ADD  R21,R30
001b51 cfef      	RJMP _0x2000091
                 _0x2000093:
001b52 3030      	CPI  R19,0
001b53 f409      	BRNE _0x2000097
001b54 c153      	RJMP _0x2000087
                 _0x2000097:
                 _0x2000098:
001b55 b7ed      	IN   R30,SPL
001b56 b7fe      	IN   R31,SPH
001b57 93fa      	ST   -Y,R31
001b58 93ea      	ST   -Y,R30
001b59 934f      	PUSH R20
001b5a 85ae      	LDD  R26,Y+14
001b5b 85bf      	LDD  R27,Y+14+1
001b5c 89e8      	LDD  R30,Y+16
001b5d 89f9      	LDD  R31,Y+16+1
001b5e 9509      	ICALL
001b5f 914f      	POP  R20
001b60 2f2e      	MOV  R18,R30
001b61 2fae      	MOV  R26,R30
001b62 940e 1d53 	CALL _isspace
001b64 30e0      	CPI  R30,0
001b65 f049      	BREQ _0x200009A
001b66 85ac      	LDD  R26,Y+12
001b67 85bd      	LDD  R27,Y+12+1
001b68 91ac      	LD   R26,X
001b69 30a0      	CPI  R26,0
001b6a f41c      	BRGE _0x200009B
001b6b efef      	LDI  R30,LOW(65535)
001b6c efff      	LDI  R31,HIGH(65535)
001b6d c13c      	RJMP _0x20A0003
                 _0x200009B:
001b6e cfe6      	RJMP _0x2000098
                 _0x200009A:
001b6f 3020      	CPI  R18,0
001b70 f409      	BRNE _0x200009C
001b71 c12d      	RJMP _0x200009D
                 _0x200009C:
001b72 2f42      	MOV  R20,R18
001b73 3050      	CPI  R21,0
001b74 f409      	BRNE _0x200009E
001b75 ef5f      	LDI  R21,LOW(255)
                 _0x200009E:
001b76 94e8      	CLT
001b77 f8f3      	BLD  R15,3
001b78 2fe3      	MOV  R30,R19
001b79 36e3      	CPI  R30,LOW(0x63)
001b7a f501      	BRNE _0x20000A2
001b7b 89e8      	LDD  R30,Y+16
001b7c 89f9      	LDD  R31,Y+16+1
001b7d 9734      	SBIW R30,4
001b7e 8be8      	STD  Y+16,R30
001b7f 8bf9      	STD  Y+16+1,R31
001b80 89a8      	LDD  R26,Y+16
001b81 89b9      	LDD  R27,Y+16+1
001b82 9614      	ADIW R26,4
001b83 910d      	LD   R16,X+
001b84 911c      	LD   R17,X
001b85 b7ed      	IN   R30,SPL
001b86 b7fe      	IN   R31,SPH
001b87 93fa      	ST   -Y,R31
001b88 93ea      	ST   -Y,R30
001b89 934f      	PUSH R20
001b8a 85ae      	LDD  R26,Y+14
001b8b 85bf      	LDD  R27,Y+14+1
001b8c 89e8      	LDD  R30,Y+16
001b8d 89f9      	LDD  R31,Y+16+1
001b8e 9509      	ICALL
001b8f 914f      	POP  R20
001b90 01d8      	MOVW R26,R16
001b91 93ec      	ST   X,R30
001b92 85ac      	LDD  R26,Y+12
001b93 85bd      	LDD  R27,Y+12+1
001b94 91ac      	LD   R26,X
001b95 30a0      	CPI  R26,0
001b96 f41c      	BRGE _0x20000A3
001b97 efef      	LDI  R30,LOW(65535)
001b98 efff      	LDI  R31,HIGH(65535)
001b99 c110      	RJMP _0x20A0003
                 _0x20000A3:
001b9a c0e9      	RJMP _0x20000A1
                 _0x20000A2:
001b9b 37e3      	CPI  R30,LOW(0x73)
001b9c f5b9      	BRNE _0x20000A4
001b9d 89e8      	LDD  R30,Y+16
001b9e 89f9      	LDD  R31,Y+16+1
001b9f 9734      	SBIW R30,4
001ba0 8be8      	STD  Y+16,R30
001ba1 8bf9      	STD  Y+16+1,R31
001ba2 89a8      	LDD  R26,Y+16
001ba3 89b9      	LDD  R27,Y+16+1
001ba4 9614      	ADIW R26,4
001ba5 910d      	LD   R16,X+
001ba6 911c      	LD   R17,X
                 _0x20000A5:
001ba7 2fe5      	MOV  R30,R21
001ba8 5051      	SUBI R21,1
001ba9 30e0      	CPI  R30,0
001baa f129      	BREQ _0x20000A7
001bab b7ed      	IN   R30,SPL
001bac b7fe      	IN   R31,SPH
001bad 93fa      	ST   -Y,R31
001bae 93ea      	ST   -Y,R30
001baf 934f      	PUSH R20
001bb0 85ae      	LDD  R26,Y+14
001bb1 85bf      	LDD  R27,Y+14+1
001bb2 89e8      	LDD  R30,Y+16
001bb3 89f9      	LDD  R31,Y+16+1
001bb4 9509      	ICALL
001bb5 914f      	POP  R20
001bb6 2f3e      	MOV  R19,R30
001bb7 30e0      	CPI  R30,0
001bb8 f029      	BREQ _0x20000A9
001bb9 2fa3      	MOV  R26,R19
001bba 940e 1d53 	CALL _isspace
001bbc 30e0      	CPI  R30,0
001bbd f049      	BREQ _0x20000A8
                 _0x20000A9:
001bbe 85ac      	LDD  R26,Y+12
001bbf 85bd      	LDD  R27,Y+12+1
001bc0 91ac      	LD   R26,X
001bc1 30a0      	CPI  R26,0
001bc2 f41c      	BRGE _0x20000AB
001bc3 efef      	LDI  R30,LOW(65535)
001bc4 efff      	LDI  R31,HIGH(65535)
001bc5 c0e4      	RJMP _0x20A0003
                 _0x20000AB:
001bc6 c009      	RJMP _0x20000A7
                 _0x20000A8:
001bc7 931f      	PUSH R17
001bc8 930f      	PUSH R16
                +
001bc9 5f0f     +SUBI R16 , LOW ( - 1 )
001bca 4f1f     +SBCI R17 , HIGH ( - 1 )
                 	__ADDWRN 16,17,1
001bcb 2fe3      	MOV  R30,R19
001bcc 91af      	POP  R26
001bcd 91bf      	POP  R27
001bce 93ec      	ST   X,R30
001bcf cfd7      	RJMP _0x20000A5
                 _0x20000A7:
001bd0 01d8      	MOVW R26,R16
001bd1 e0e0      	LDI  R30,LOW(0)
001bd2 93ec      	ST   X,R30
001bd3 c0b0      	RJMP _0x20000A1
                 _0x20000A4:
001bd4 36ec      	CPI  R30,LOW(0x6C)
001bd5 f439      	BRNE _0x20000AD
001bd6 9468      	SET
001bd7 f8f3      	BLD  R15,3
001bd8 89ea      	LDD  R30,Y+18
001bd9 89fb      	LDD  R31,Y+18+1
001bda 9135      	LPM  R19,Z+
001bdb 8bea      	STD  Y+18,R30
001bdc 8bfb      	STD  Y+18+1,R31
                 _0x20000AD:
001bdd 9468      	SET
001bde f8f1      	BLD  R15,1
001bdf 94e8      	CLT
001be0 f8f2      	BLD  R15,2
001be1 2fe3      	MOV  R30,R19
001be2 36e4      	CPI  R30,LOW(0x64)
001be3 f011      	BREQ _0x20000B2
001be4 36e9      	CPI  R30,LOW(0x69)
001be5 f419      	BRNE _0x20000B3
                 _0x20000B2:
001be6 94e8      	CLT
001be7 f8f1      	BLD  R15,1
001be8 c002      	RJMP _0x20000B4
                 _0x20000B3:
001be9 37e5      	CPI  R30,LOW(0x75)
001bea f411      	BRNE _0x20000B5
                 _0x20000B4:
001beb e02a      	LDI  R18,LOW(10)
001bec c008      	RJMP _0x20000B0
                 _0x20000B5:
001bed 37e8      	CPI  R30,LOW(0x78)
001bee f411      	BRNE _0x20000B6
001bef e120      	LDI  R18,LOW(16)
001bf0 c004      	RJMP _0x20000B0
                 _0x20000B6:
001bf1 32e5      	CPI  R30,LOW(0x25)
001bf2 f409      	BRNE _0x20000B9
001bf3 c096      	RJMP _0x20000B8
                 _0x20000B9:
001bf4 c0b3      	RJMP _0x20A0004
                 _0x20000B0:
001bf5 e0e0      	LDI  R30,LOW(0)
                +
001bf6 83ee     +STD Y + 6 , R30
001bf7 83ef     +STD Y + 6 + 1 , R30
001bf8 87e8     +STD Y + 6 + 2 , R30
001bf9 87e9     +STD Y + 6 + 3 , R30
                 	__CLRD1S 6
001bfa 9468      	SET
001bfb f8f0      	BLD  R15,0
                 _0x20000BA:
001bfc 2fe5      	MOV  R30,R21
001bfd 5051      	SUBI R21,1
001bfe 30e0      	CPI  R30,0
001bff f409      	BRNE PC+2
001c00 c054      	RJMP _0x20000BC
001c01 b7ed      	IN   R30,SPL
001c02 b7fe      	IN   R31,SPH
001c03 93fa      	ST   -Y,R31
001c04 93ea      	ST   -Y,R30
001c05 934f      	PUSH R20
001c06 85ae      	LDD  R26,Y+14
001c07 85bf      	LDD  R27,Y+14+1
001c08 89e8      	LDD  R30,Y+16
001c09 89f9      	LDD  R31,Y+16+1
001c0a 9509      	ICALL
001c0b 914f      	POP  R20
001c0c 2f3e      	MOV  R19,R30
001c0d 32e1      	CPI  R30,LOW(0x21)
001c0e f448      	BRSH _0x20000BD
001c0f 85ac      	LDD  R26,Y+12
001c10 85bd      	LDD  R27,Y+12+1
001c11 91ac      	LD   R26,X
001c12 30a0      	CPI  R26,0
001c13 f41c      	BRGE _0x20000BE
001c14 efef      	LDI  R30,LOW(65535)
001c15 efff      	LDI  R31,HIGH(65535)
001c16 c093      	RJMP _0x20A0003
                 _0x20000BE:
001c17 c017      	RJMP _0x20000BF
                 _0x20000BD:
001c18 fcf1      	SBRC R15,1
001c19 c008      	RJMP _0x20000C0
001c1a 9468      	SET
001c1b f8f1      	BLD  R15,1
001c1c 323d      	CPI  R19,45
001c1d f411      	BRNE _0x20000C1
001c1e f8f2      	BLD  R15,2
001c1f cfdc      	RJMP _0x20000BA
                 _0x20000C1:
001c20 323b      	CPI  R19,43
001c21 f2d1      	BREQ _0x20000BA
                 _0x20000C0:
001c22 3120      	CPI  R18,16
001c23 f431      	BRNE _0x20000C3
001c24 2fa3      	MOV  R26,R19
001c25 940e 1d5e 	CALL _isxdigit
001c27 30e0      	CPI  R30,0
001c28 f031      	BREQ _0x20000BF
001c29 c009      	RJMP _0x20000C5
                 _0x20000C3:
001c2a 2fa3      	MOV  R26,R19
001c2b 940e 1d4a 	CALL _isdigit
001c2d 30e0      	CPI  R30,0
001c2e f421      	BRNE _0x20000C6
                 _0x20000BF:
001c2f fcf0      	SBRC R15,0
001c30 c077      	RJMP _0x20000C8
001c31 2f43      	MOV  R20,R19
001c32 c022      	RJMP _0x20000BC
                 _0x20000C6:
                 _0x20000C5:
001c33 3631      	CPI  R19,97
001c34 f010      	BRLO _0x20000C9
001c35 5537      	SUBI R19,LOW(87)
001c36 c005      	RJMP _0x20000CA
                 _0x20000C9:
001c37 3431      	CPI  R19,65
001c38 f010      	BRLO _0x20000CB
001c39 5337      	SUBI R19,LOW(55)
001c3a c001      	RJMP _0x20000CC
                 _0x20000CB:
001c3b 5330      	SUBI R19,LOW(48)
                 _0x20000CC:
                 _0x20000CA:
001c3c 2fe2      	MOV  R30,R18
                +
001c3d 81ae     +LDD R26 , Y + 6
001c3e 81bf     +LDD R27 , Y + 6 + 1
001c3f 8588     +LDD R24 , Y + 6 + 2
001c40 8599     +LDD R25 , Y + 6 + 3
                 	__GETD2S 6
001c41 27ff      	CLR  R31
001c42 2766      	CLR  R22
001c43 2777      	CLR  R23
001c44 940e 1d9e 	CALL __MULD12U
001c46 01df      	MOVW R26,R30
001c47 01cb      	MOVW R24,R22
001c48 2fe3      	MOV  R30,R19
001c49 27ff      	CLR  R31
001c4a 2766      	CLR  R22
001c4b 2777      	CLR  R23
001c4c 940e 1d7b 	CALL __ADDD12
                +
001c4e 83ee     +STD Y + 6 , R30
001c4f 83ff     +STD Y + 6 + 1 , R31
001c50 8768     +STD Y + 6 + 2 , R22
001c51 8779     +STD Y + 6 + 3 , R23
                 	__PUTD1S 6
001c52 94e8      	CLT
001c53 f8f0      	BLD  R15,0
001c54 cfa7      	RJMP _0x20000BA
                 _0x20000BC:
001c55 fef2      	SBRS R15,2
001c56 c00a      	RJMP _0x20000CD
                +
001c57 81ee     +LDD R30 , Y + 6
001c58 81ff     +LDD R31 , Y + 6 + 1
001c59 8568     +LDD R22 , Y + 6 + 2
001c5a 8579     +LDD R23 , Y + 6 + 3
                 	__GETD1S 6
001c5b 940e 1d80 	CALL __ANEGD1
                +
001c5d 83ee     +STD Y + 6 , R30
001c5e 83ff     +STD Y + 6 + 1 , R31
001c5f 8768     +STD Y + 6 + 2 , R22
001c60 8779     +STD Y + 6 + 3 , R23
                 	__PUTD1S 6
                 _0x20000CD:
001c61 fef3      	SBRS R15,3
001c62 c012      	RJMP _0x20000CE
001c63 89e8      	LDD  R30,Y+16
001c64 89f9      	LDD  R31,Y+16+1
001c65 9734      	SBIW R30,4
001c66 8be8      	STD  Y+16,R30
001c67 8bf9      	STD  Y+16+1,R31
001c68 89a8      	LDD  R26,Y+16
001c69 89b9      	LDD  R27,Y+16+1
001c6a 9614      	ADIW R26,4
001c6b 910d      	LD   R16,X+
001c6c 911c      	LD   R17,X
                +
001c6d 81ee     +LDD R30 , Y + 6
001c6e 81ff     +LDD R31 , Y + 6 + 1
001c6f 8568     +LDD R22 , Y + 6 + 2
001c70 8579     +LDD R23 , Y + 6 + 3
                 	__GETD1S 6
001c71 01d8      	MOVW R26,R16
001c72 940e 1e04 	CALL __PUTDP1
001c74 c00f      	RJMP _0x20000CF
                 _0x20000CE:
001c75 89e8      	LDD  R30,Y+16
001c76 89f9      	LDD  R31,Y+16+1
001c77 9734      	SBIW R30,4
001c78 8be8      	STD  Y+16,R30
001c79 8bf9      	STD  Y+16+1,R31
001c7a 89a8      	LDD  R26,Y+16
001c7b 89b9      	LDD  R27,Y+16+1
001c7c 9614      	ADIW R26,4
001c7d 910d      	LD   R16,X+
001c7e 911c      	LD   R17,X
001c7f 81ee      	LDD  R30,Y+6
001c80 81ff      	LDD  R31,Y+6+1
001c81 01d8      	MOVW R26,R16
001c82 93ed      	ST   X+,R30
001c83 93fc      	ST   X,R31
                 _0x20000CF:
                 _0x20000A1:
001c84 85ea      	LDD  R30,Y+10
001c85 85fb      	LDD  R31,Y+10+1
001c86 9631      	ADIW R30,1
001c87 87ea      	STD  Y+10,R30
001c88 87fb      	STD  Y+10+1,R31
001c89 c01d      	RJMP _0x20000D0
                 _0x2000090:
                 _0x20000B8:
001c8a b7ed      	IN   R30,SPL
001c8b b7fe      	IN   R31,SPH
001c8c 93fa      	ST   -Y,R31
001c8d 93ea      	ST   -Y,R30
001c8e 934f      	PUSH R20
001c8f 85ae      	LDD  R26,Y+14
001c90 85bf      	LDD  R27,Y+14+1
001c91 89e8      	LDD  R30,Y+16
001c92 89f9      	LDD  R31,Y+16+1
001c93 9509      	ICALL
001c94 914f      	POP  R20
001c95 17e3      	CP   R30,R19
001c96 f081      	BREQ _0x20000D1
001c97 85ac      	LDD  R26,Y+12
001c98 85bd      	LDD  R27,Y+12+1
001c99 91ac      	LD   R26,X
001c9a 30a0      	CPI  R26,0
001c9b f41c      	BRGE _0x20000D2
001c9c efef      	LDI  R30,LOW(65535)
001c9d efff      	LDI  R31,HIGH(65535)
001c9e c00b      	RJMP _0x20A0003
                 _0x20000D2:
                 _0x200009D:
001c9f 85ea      	LDD  R30,Y+10
001ca0 85fb      	LDD  R31,Y+10+1
001ca1 9730      	SBIW R30,0
001ca2 f419      	BRNE _0x20000D3
001ca3 efef      	LDI  R30,LOW(65535)
001ca4 efff      	LDI  R31,HIGH(65535)
001ca5 c004      	RJMP _0x20A0003
                 _0x20000D3:
001ca6 c001      	RJMP _0x2000087
                 _0x20000D1:
                 _0x20000D0:
                 _0x200008F:
001ca7 ce66      	RJMP _0x2000085
                 _0x2000087:
                 _0x20000C8:
                 _0x20A0004:
001ca8 85ea      	LDD  R30,Y+10
001ca9 85fb      	LDD  R31,Y+10+1
                 _0x20A0003:
001caa 940e 1e1b 	CALL __LOADLOCR6
001cac 9664      	ADIW R28,20
001cad 90ff      	POP  R15
001cae 9508      	RET
                 ; .FEND
                 _sscanf:
                 ; .FSTART _sscanf
001caf 92ff      	PUSH R15
001cb0 2ef8      	MOV  R15,R24
001cb1 9723      	SBIW R28,3
001cb2 931a      	ST   -Y,R17
001cb3 930a      	ST   -Y,R16
001cb4 01de      	MOVW R26,R28
001cb5 9617      	ADIW R26,7
001cb6 940e 1d77 	CALL __ADDW2R15
001cb8 940e 1dfa 	CALL __GETW1P
001cba 9730      	SBIW R30,0
001cbb f419      	BRNE _0x20000D4
001cbc efef      	LDI  R30,LOW(65535)
001cbd efff      	LDI  R31,HIGH(65535)
001cbe c01e      	RJMP _0x20A0002
                 _0x20000D4:
001cbf 01de      	MOVW R26,R28
001cc0 9611      	ADIW R26,1
001cc1 940e 1d77 	CALL __ADDW2R15
001cc3 018d      	MOVW R16,R26
001cc4 01de      	MOVW R26,R28
001cc5 9617      	ADIW R26,7
001cc6 940e 1d77 	CALL __ADDW2R15
001cc8 940e 1dfa 	CALL __GETW1P
001cca 83eb      	STD  Y+3,R30
001ccb 83fc      	STD  Y+3+1,R31
001ccc 01de      	MOVW R26,R28
001ccd 9615      	ADIW R26,5
001cce 940e 1d77 	CALL __ADDW2R15
001cd0 940e 1dfa 	CALL __GETW1P
001cd2 93fa      	ST   -Y,R31
001cd3 93ea      	ST   -Y,R30
001cd4 931a      	ST   -Y,R17
001cd5 930a      	ST   -Y,R16
001cd6 ede7      	LDI  R30,LOW(_get_buff_G100)
001cd7 e1fa      	LDI  R31,HIGH(_get_buff_G100)
001cd8 93fa      	ST   -Y,R31
001cd9 93ea      	ST   -Y,R30
001cda 01de      	MOVW R26,R28
001cdb 9618      	ADIW R26,8
001cdc de26      	RCALL __scanf_G100
                 _0x20A0002:
001cdd 8119      	LDD  R17,Y+1
001cde 8108      	LDD  R16,Y+0
001cdf 9625      	ADIW R28,5
001ce0 90ff      	POP  R15
001ce1 9508      	RET
                 ; .FEND
                 
                 	.CSEG
                 
                 	.DSEG
                 
                 	.CSEG
                 
                 	.CSEG
                 _memset:
                 ; .FSTART _memset
001ce2 93ba      	ST   -Y,R27
001ce3 93aa      	ST   -Y,R26
001ce4 81b9          ldd  r27,y+1
001ce5 81a8          ld   r26,y
001ce6 9610          adiw r26,0
001ce7 f031          breq memset1
001ce8 81fc          ldd  r31,y+4
001ce9 81eb          ldd  r30,y+3
001cea 816a          ldd  r22,y+2
                 memset0:
001ceb 9361          st   z+,r22
001cec 9711          sbiw r26,1
001ced f7e9          brne memset0
                 memset1:
001cee 81eb          ldd  r30,y+3
001cef 81fc          ldd  r31,y+4
                 _0x20A0001:
001cf0 9625      	ADIW R28,5
001cf1 9508      	RET
                 ; .FEND
                 _strcpyf:
                 ; .FSTART _strcpyf
001cf2 93ba      	ST   -Y,R27
001cf3 93aa      	ST   -Y,R26
001cf4 91e9          ld   r30,y+
001cf5 91f9          ld   r31,y+
001cf6 91a9          ld   r26,y+
001cf7 91b9          ld   r27,y+
001cf8 01cd          movw r24,r26
                 strcpyf0:
001cf9 9005      	lpm  r0,z+
001cfa 920d          st   x+,r0
001cfb 2000          tst  r0
001cfc f7e1          brne strcpyf0
001cfd 01fc          movw r30,r24
001cfe 9508          ret
                 ; .FEND
                 _strlen:
                 ; .FSTART _strlen
001cff 93ba      	ST   -Y,R27
001d00 93aa      	ST   -Y,R26
001d01 91a9          ld   r26,y+
001d02 91b9          ld   r27,y+
001d03 27ee          clr  r30
001d04 27ff          clr  r31
                 strlen0:
001d05 916d          ld   r22,x+
001d06 2366          tst  r22
001d07 f011          breq strlen1
001d08 9631          adiw r30,1
001d09 cffb          rjmp strlen0
                 strlen1:
001d0a 9508          ret
                 ; .FEND
                 _strlenf:
                 ; .FSTART _strlenf
001d0b 93ba      	ST   -Y,R27
001d0c 93aa      	ST   -Y,R26
001d0d 27aa          clr  r26
001d0e 27bb          clr  r27
001d0f 91e9          ld   r30,y+
001d10 91f9          ld   r31,y+
                 strlenf0:
001d11 9005      	lpm  r0,z+
001d12 2000          tst  r0
001d13 f011          breq strlenf1
001d14 9611          adiw r26,1
001d15 cffb          rjmp strlenf0
                 strlenf1:
001d16 01fd          movw r30,r26
001d17 9508          ret
                 ; .FEND
                 _strncmp:
                 ; .FSTART _strncmp
001d18 93aa      	ST   -Y,R26
001d19 2766          clr  r22
001d1a 2777          clr  r23
001d1b 9189          ld   r24,y+
001d1c 91e9          ld   r30,y+
001d1d 91f9          ld   r31,y+
001d1e 91a9          ld   r26,y+
001d1f 91b9          ld   r27,y+
                 strncmp0:
001d20 2388          tst  r24
001d21 f049          breq strncmp1
001d22 958a          dec  r24
001d23 916d          ld   r22,x+
001d24 9171          ld   r23,z+
001d25 1767          cp   r22,r23
001d26 f421          brne strncmp1
001d27 2366          tst  r22
001d28 f7b9          brne strncmp0
                 strncmp3:
001d29 27ee          clr  r30
001d2a 9508          ret
                 strncmp1:
001d2b 1b67          sub  r22,r23
001d2c f3e1          breq strncmp3
001d2d e0e1          ldi  r30,1
001d2e f408          brcc strncmp2
001d2f 50e2          subi r30,2
                 strncmp2:
001d30 9508          ret
                 ; .FEND
                 _strncmpf:
                 ; .FSTART _strncmpf
001d31 93aa      	ST   -Y,R26
001d32 2400          clr  r0
001d33 2411          clr  r1
001d34 9169          ld   r22,y+
001d35 91e9          ld   r30,y+
001d36 91f9          ld   r31,y+
001d37 91a9          ld   r26,y+
001d38 91b9          ld   r27,y+
                 strncmpf0:
001d39 2366          tst  r22
001d3a f049          breq strncmpf1
001d3b 956a          dec  r22
001d3c 901d          ld   r1,x+
001d3d 9005      	lpm  r0,z+
001d3e 1401          cp   r0,r1
001d3f f421          brne strncmpf1
001d40 2000          tst  r0
001d41 f7b9          brne strncmpf0
                 strncmpf3:
001d42 27ee          clr  r30
001d43 9508          ret
                 strncmpf1:
001d44 1810          sub  r1,r0
001d45 f3e1          breq strncmpf3
001d46 e0e1          ldi  r30,1
001d47 f408          brcc strncmpf2
001d48 50e2          subi r30,2
                 strncmpf2:
001d49 9508          ret
                 ; .FEND
                 
                 	.CSEG
                 _isdigit:
                 ; .FSTART _isdigit
001d4a 93aa      	ST   -Y,R26
001d4b e0e1          ldi  r30,1
001d4c 91f9          ld   r31,y+
001d4d 33f0          cpi  r31,'0'
001d4e f010          brlo isdigit0
001d4f 33fa          cpi  r31,'9'+1
001d50 f008          brlo isdigit1
                 isdigit0:
001d51 27ee          clr  r30
                 isdigit1:
001d52 9508          ret
                 ; .FEND
                 _isspace:
                 ; .FSTART _isspace
001d53 93aa      	ST   -Y,R26
001d54 e0e1          ldi  r30,1
001d55 91f9          ld   r31,y+
001d56 32f0          cpi  r31,' '
001d57 f029          breq isspace1
001d58 30f9          cpi  r31,9
001d59 f010          brlo isspace0
001d5a 30fe          cpi  r31,13+1
001d5b f008          brlo isspace1
                 isspace0:
001d5c 27ee          clr  r30
                 isspace1:
001d5d 9508          ret
                 ; .FEND
                 _isxdigit:
                 ; .FSTART _isxdigit
001d5e 93aa      	ST   -Y,R26
001d5f e0e1          ldi  r30,1
001d60 91f9          ld   r31,y+
001d61 53f0          subi r31,0x30
001d62 f040          brcs isxdigit0
001d63 30fa          cpi  r31,10
001d64 f038          brcs isxdigit1
001d65 75ff          andi r31,0x5f
001d66 50f7          subi r31,7
001d67 30fa          cpi  r31,10
001d68 f010          brcs isxdigit0
001d69 31f0          cpi  r31,16
001d6a f008          brcs isxdigit1
                 isxdigit0:
001d6b 27ee          clr  r30
                 isxdigit1:
001d6c 9508          ret
                 ; .FEND
                 
                 	.CSEG
                 
                 	.DSEG
                 _rx_buffer0:
000200           	.BYTE 0x8
                 _tx_buffer0:
000208           	.BYTE 0x18
                 _rx_buffer1:
000220           	.BYTE 0x20
                 _tx_buffer1:
000240           	.BYTE 0x18
                 _pinA:
000258           	.BYTE 0x1
                 _time0:
000259           	.BYTE 0x1
                 _time2:
00025a           	.BYTE 0x1
                 _cr:
00025b           	.BYTE 0x1
                 _ct:
00025c           	.BYTE 0x2
                 _msg:
00025e           	.BYTE 0x28
                 _errmsg:
000286           	.BYTE 0x18
                 _rsp:
00029e           	.BYTE 0x40
                 _Nrsp:
0002de           	.BYTE 0x1
                 _LRC:
0002df           	.BYTE 0x1
                 _i:
0002e0           	.BYTE 0x1
                 _val:
0002e1           	.BYTE 0x4
                 __seed_G101:
0002e5           	.BYTE 0x4
                 
                 	.CSEG
                 
                 	.CSEG
                 _delay_ms:
001d6d 9610      	adiw r26,0
001d6e f039      	breq __delay_ms1
                 __delay_ms0:
                +
001d6f e888     +LDI R24 , LOW ( 0x1388 )
001d70 e193     +LDI R25 , HIGH ( 0x1388 )
                +__DELAY_USW_LOOP :
001d71 9701     +SBIW R24 , 1
001d72 f7f1     +BRNE __DELAY_USW_LOOP
                 	__DELAY_USW 0x1388
001d73 95a8      	wdr
001d74 9711      	sbiw r26,1
001d75 f7c9      	brne __delay_ms0
                 __delay_ms1:
001d76 9508      	ret
                 
                 __ADDW2R15:
001d77 2400      	CLR  R0
001d78 0daf      	ADD  R26,R15
001d79 1db0      	ADC  R27,R0
001d7a 9508      	RET
                 
                 __ADDD12:
001d7b 0fea      	ADD  R30,R26
001d7c 1ffb      	ADC  R31,R27
001d7d 1f68      	ADC  R22,R24
001d7e 1f79      	ADC  R23,R25
001d7f 9508      	RET
                 
                 __ANEGD1:
001d80 95f0      	COM  R31
001d81 9560      	COM  R22
001d82 9570      	COM  R23
001d83 95e1      	NEG  R30
001d84 4fff      	SBCI R31,-1
001d85 4f6f      	SBCI R22,-1
001d86 4f7f      	SBCI R23,-1
001d87 9508      	RET
                 
                 __LSRD12:
001d88 23ee      	TST  R30
001d89 2e0e      	MOV  R0,R30
001d8a 01fd      	MOVW R30,R26
001d8b 01bc      	MOVW R22,R24
001d8c f031      	BREQ __LSRD12R
                 __LSRD12L:
001d8d 9576      	LSR  R23
001d8e 9567      	ROR  R22
001d8f 95f7      	ROR  R31
001d90 95e7      	ROR  R30
001d91 940a      	DEC  R0
001d92 f7d1      	BRNE __LSRD12L
                 __LSRD12R:
001d93 9508      	RET
                 
                 __LSRD16:
001d94 2fe6      	MOV  R30,R22
001d95 2ff7      	MOV  R31,R23
001d96 e060      	LDI  R22,0
001d97 e070      	LDI  R23,0
001d98 9508      	RET
                 
                 __CWD1:
001d99 2f6f      	MOV  R22,R31
001d9a 0f66      	ADD  R22,R22
001d9b 0b66      	SBC  R22,R22
001d9c 2f76      	MOV  R23,R22
001d9d 9508      	RET
                 
                 __MULD12U:
001d9e 9f7a      	MUL  R23,R26
001d9f 2d70      	MOV  R23,R0
001da0 9f6b      	MUL  R22,R27
001da1 0d70      	ADD  R23,R0
001da2 9ff8      	MUL  R31,R24
001da3 0d70      	ADD  R23,R0
001da4 9fe9      	MUL  R30,R25
001da5 0d70      	ADD  R23,R0
001da6 9f6a      	MUL  R22,R26
001da7 2d60      	MOV  R22,R0
001da8 0d71      	ADD  R23,R1
001da9 9ffb      	MUL  R31,R27
001daa 0d60      	ADD  R22,R0
001dab 1d71      	ADC  R23,R1
001dac 9fe8      	MUL  R30,R24
001dad 0d60      	ADD  R22,R0
001dae 1d71      	ADC  R23,R1
001daf 2788      	CLR  R24
001db0 9ffa      	MUL  R31,R26
001db1 2df0      	MOV  R31,R0
001db2 0d61      	ADD  R22,R1
001db3 1f78      	ADC  R23,R24
001db4 9feb      	MUL  R30,R27
001db5 0df0      	ADD  R31,R0
001db6 1d61      	ADC  R22,R1
001db7 1f78      	ADC  R23,R24
001db8 9fea      	MUL  R30,R26
001db9 2de0      	MOV  R30,R0
001dba 0df1      	ADD  R31,R1
001dbb 1f68      	ADC  R22,R24
001dbc 1f78      	ADC  R23,R24
001dbd 9508      	RET
                 
                 __DIVW21U:
001dbe 2400      	CLR  R0
001dbf 2411      	CLR  R1
001dc0 e190      	LDI  R25,16
                 __DIVW21U1:
001dc1 0faa      	LSL  R26
001dc2 1fbb      	ROL  R27
001dc3 1c00      	ROL  R0
001dc4 1c11      	ROL  R1
001dc5 1a0e      	SUB  R0,R30
001dc6 0a1f      	SBC  R1,R31
001dc7 f418      	BRCC __DIVW21U2
001dc8 0e0e      	ADD  R0,R30
001dc9 1e1f      	ADC  R1,R31
001dca c001      	RJMP __DIVW21U3
                 __DIVW21U2:
001dcb 60a1      	SBR  R26,1
                 __DIVW21U3:
001dcc 959a      	DEC  R25
001dcd f799      	BRNE __DIVW21U1
001dce 01fd      	MOVW R30,R26
001dcf 01d0      	MOVW R26,R0
001dd0 9508      	RET
                 
                 __DIVD21U:
001dd1 933f      	PUSH R19
001dd2 934f      	PUSH R20
001dd3 935f      	PUSH R21
001dd4 2400      	CLR  R0
001dd5 2411      	CLR  R1
001dd6 2744      	CLR  R20
001dd7 2755      	CLR  R21
001dd8 e230      	LDI  R19,32
                 __DIVD21U1:
001dd9 0faa      	LSL  R26
001dda 1fbb      	ROL  R27
001ddb 1f88      	ROL  R24
001ddc 1f99      	ROL  R25
001ddd 1c00      	ROL  R0
001dde 1c11      	ROL  R1
001ddf 1f44      	ROL  R20
001de0 1f55      	ROL  R21
001de1 1a0e      	SUB  R0,R30
001de2 0a1f      	SBC  R1,R31
001de3 0b46      	SBC  R20,R22
001de4 0b57      	SBC  R21,R23
001de5 f428      	BRCC __DIVD21U2
001de6 0e0e      	ADD  R0,R30
001de7 1e1f      	ADC  R1,R31
001de8 1f46      	ADC  R20,R22
001de9 1f57      	ADC  R21,R23
001dea c001      	RJMP __DIVD21U3
                 __DIVD21U2:
001deb 60a1      	SBR  R26,1
                 __DIVD21U3:
001dec 953a      	DEC  R19
001ded f759      	BRNE __DIVD21U1
001dee 01fd      	MOVW R30,R26
001def 01bc      	MOVW R22,R24
001df0 01d0      	MOVW R26,R0
001df1 01ca      	MOVW R24,R20
001df2 915f      	POP  R21
001df3 914f      	POP  R20
001df4 913f      	POP  R19
001df5 9508      	RET
                 
                 __MODD21U:
001df6 dfda      	RCALL __DIVD21U
001df7 01fd      	MOVW R30,R26
001df8 01bc      	MOVW R22,R24
001df9 9508      	RET
                 
                 __GETW1P:
001dfa 91ed      	LD   R30,X+
001dfb 91fc      	LD   R31,X
001dfc 9711      	SBIW R26,1
001dfd 9508      	RET
                 
                 __GETD1P:
001dfe 91ed      	LD   R30,X+
001dff 91fd      	LD   R31,X+
001e00 916d      	LD   R22,X+
001e01 917c      	LD   R23,X
001e02 9713      	SBIW R26,3
001e03 9508      	RET
                 
                 __PUTDP1:
001e04 93ed      	ST   X+,R30
001e05 93fd      	ST   X+,R31
001e06 936d      	ST   X+,R22
001e07 937c      	ST   X,R23
001e08 9508      	RET
                 
                 __PUTPARD1L:
001e09 e060      	LDI  R22,0
001e0a e070      	LDI  R23,0
                 __PUTPARD1:
001e0b 937a      	ST   -Y,R23
001e0c 936a      	ST   -Y,R22
001e0d 93fa      	ST   -Y,R31
001e0e 93ea      	ST   -Y,R30
001e0f 9508      	RET
                 
                 __CPD10:
001e10 9730      	SBIW R30,0
001e11 4060      	SBCI R22,0
001e12 4070      	SBCI R23,0
001e13 9508      	RET
                 
                 __SAVELOCR6:
001e14 935a      	ST   -Y,R21
                 __SAVELOCR5:
001e15 934a      	ST   -Y,R20
                 __SAVELOCR4:
001e16 933a      	ST   -Y,R19
                 __SAVELOCR3:
001e17 932a      	ST   -Y,R18
                 __SAVELOCR2:
001e18 931a      	ST   -Y,R17
001e19 930a      	ST   -Y,R16
001e1a 9508      	RET
                 
                 __LOADLOCR6:
001e1b 815d      	LDD  R21,Y+5
                 __LOADLOCR5:
001e1c 814c      	LDD  R20,Y+4
                 __LOADLOCR4:
001e1d 813b      	LDD  R19,Y+3
                 __LOADLOCR3:
001e1e 812a      	LDD  R18,Y+2
                 __LOADLOCR2:
001e1f 8119      	LDD  R17,Y+1
001e20 8108      	LD   R16,Y
001e21 9508      	RET
                 
                 __INITLOCB:
                 __INITLOCW:
001e22 0fac      	ADD  R26,R28
001e23 1fbd      	ADC  R27,R29
                 __INITLOC0:
001e24 9005      	LPM  R0,Z+
001e25 920d      	ST   X+,R0
001e26 958a      	DEC  R24
001e27 f7e1      	BRNE __INITLOC0
001e28 9508      	RET
                 
                 ;END OF CODE MARKER
                 __END_OF_CODE:


RESOURCE USE INFORMATION
------------------------

Notice:
The register and instruction counts are symbol table hit counts,
and hence implicitly used resources are not counted, eg, the
'lpm' instruction without operands implicitly uses r0 and z,
none of which are counted.

x,y,z are separate entities in the symbol table and are
counted separately from r26..r31 here.

.dseg memory usage only counts static data declared with .byte

ATmega164A register use summary:
r0 :  60 r1 :  26 r2 :   0 r3 :   0 r4 :   4 r5 :   4 r6 :   3 r7 :   5 
r8 :   4 r9 :   4 r10:   4 r11:   4 r12:  14 r13:   5 r14:   4 r15:  22 
r16:  79 r17: 236 r18:  52 r19:  53 r20:  41 r21:  38 r22: 169 r23: 153 
r24: 140 r25:  96 r26: 708 r27: 407 r28: 130 r29:   2 r30:1388 r31: 633 
x  : 123 y  : 899 z  :  56 
Registers used: 33 out of 35 (94.3%)

ATmega164A instruction use summary:
.lds  :   0 .lds.l:   0 .sts  :   0 .sts.l:   0 adc   :  18 add   :  24 
adiw  : 143 and   :   0 andi  :  12 asr   :   0 bclr  :   0 bld   :   9 
brbc  :   0 brbs  :   0 brcc  :   4 brcs  :   4 break :   0 breq  :  76 
brge  :   6 brhc  :   0 brhs  :   0 brid  :   0 brie  :   0 brlo  :  14 
brlt  :   3 brmi  :   1 brne  : 173 brpl  :   1 brsh  :  48 brtc  :   0 
brts  :   0 brvc  :   0 brvs  :   0 bset  :   0 bst   :   0 call  : 480 
cbi   :   3 cbr   :   0 clc   :   0 clh   :   0 cli   :   4 cln   :   0 
clr   :  61 cls   :   0 clt   :   4 clv   :   0 clz   :   0 com   :   3 
cp    :  21 cpc   :  12 cpi   : 245 cpse  :   0 dec   :  10 des   :   0 
eor   :   0 fmul  :   0 fmuls :   0 fmulsu:   0 icall :  14 ijmp  :   0 
in    :  26 inc   :  11 jmp   :  42 ld    : 138 ldd   : 358 ldi   :1087 
lds   : 238 lpm   :  26 lsl   :   2 lsr   :   1 mov   :  68 movw  : 185 
mul   :  12 muls  :   0 mulsu :   0 neg   :   3 nop   :   0 or    :   2 
ori   :   7 out   :  39 pop   : 158 push  : 158 rcall :  49 ret   :  44 
reti  :   7 rjmp  : 288 rol   :  10 ror   :   3 sbc   :  11 sbci  :  87 
sbi   :   4 sbic  :   0 sbis  :   1 sbiw  :  48 sbr   :   2 sbrc  :   4 
sbrs  :  15 sec   :   0 seh   :   0 sei   :   4 sen   :   0 ser   :   2 
ses   :   0 set   :   4 sev   :   0 sez   :   0 sleep :   0 spm   :   0 
st    : 400 std   : 162 sts   :  93 sub   :  14 subi  : 174 swap  :   1 
tst   :  24 wdr   :  67 
Instructions used: 70 out of 116 (60.3%)

ATmega164A memory use summary [bytes]:
Segment   Begin    End      Code   Data   Used    Size   Use%
---------------------------------------------------------------
[.cseg] 0x000000 0x003c52  12638   2804  15442   16384  94.3%
[.dseg] 0x000100 0x0002e9      0    233    233    1024  22.8%
[.eseg] 0x000000 0x000000      0      0      0     512   0.0%

Assembly complete, 0 errors, 15 warnings
